 tbb_debug

 Timestamp is 551c1d0e (Wed Apr 01 18:30:06 2015)

 Preferred load address is 10000000

 Start         Length     Name                   Class
 0001:00000000 000006e4H .text$di                CODE
 0001:000006f0 00023926H .text$mn                CODE
 0001:00024020 00000bbdH .text$x                 CODE
 0001:00024be0 000002b6H .text$yd                CODE
 0002:00000000 000001f8H .idata$5                DATA
 0002:000001f8 00000004H .CRT$XCA                DATA
 0002:000001fc 0000005cH .CRT$XCU                DATA
 0002:00000258 00000004H .CRT$XCZ                DATA
 0002:0000025c 00000004H .CRT$XIA                DATA
 0002:00000260 00000004H .CRT$XIAA               DATA
 0002:00000264 00000004H .CRT$XIC                DATA
 0002:00000268 00000004H .CRT$XIZ                DATA
 0002:00000270 00009990H .rdata                  DATA
 0002:00009c00 00000060H .rdata$debug            DATA
 0002:00009c60 00000cf8H .rdata$r                DATA
 0002:0000a960 00000114H .rdata$sxdata           DATA
 0002:0000aa74 00000004H .rtc$IAA                DATA
 0002:0000aa78 00000058H .rtc$IMZ                DATA
 0002:0000aad0 00000004H .rtc$IZZ                DATA
 0002:0000aad4 00000004H .rtc$TAA                DATA
 0002:0000aad8 00000058H .rtc$TMZ                DATA
 0002:0000ab30 00000004H .rtc$TZZ                DATA
 0002:0000ab38 00001194H .xdata$x                DATA
 0002:0000bcd0 00002c05H .edata                  DATA
 0002:0000e8d8 0000003cH .idata$2                DATA
 0002:0000e914 00000014H .idata$3                DATA
 0002:0000e928 000001f8H .idata$4                DATA
 0002:0000eb20 000009b8H .idata$6                DATA
 0003:00000000 00000904H .data                   DATA
 0003:00000908 000005fcH .data$r                 DATA
 0003:00000f08 0000153cH .bss                    DATA
 0004:00000000 000000a0H .rsrc$01                DATA
 0004:000000a0 000006a0H .rsrc$02                DATA

  Address         Publics by Value              Rva+Base       Lib:Object

 0000:00000000       ___guard_fids_count        00000000     <absolute>
 0000:00000000       __except_list              00000000     <absolute>
 0000:00000000       ___guard_flags             00000000     <absolute>
 0000:00000000       ___guard_fids_table        00000000     <absolute>
 0000:00000045       ___safe_se_handler_count   00000045     <absolute>
 0000:00009876       __fltused                  00009876     <absolute>
 0000:00009876       __ldused                   00009876     <absolute>
 0000:00000000       ___ImageBase               10000000     <linker-defined>
 0001:000006f0       ??0concurrent_queue_base@internal@tbb@@IAE@I@Z 100016f0 f   concurrent_queue_v2.obj
 0001:000008f0       ??1concurrent_queue_base@internal@tbb@@MAE@XZ 100018f0 f   concurrent_queue_v2.obj
 0001:000009d0       ?internal_push@concurrent_queue_base@internal@tbb@@IAEXPBX@Z 100019d0 f   concurrent_queue_v2.obj
 0001:00000ab0       ?internal_pop@concurrent_queue_base@internal@tbb@@IAEXPAX@Z 10001ab0 f   concurrent_queue_v2.obj
 0001:00000b20       ?internal_push_if_not_full@concurrent_queue_base@internal@tbb@@IAE_NPBX@Z 10001b20 f   concurrent_queue_v2.obj
 0001:00000c10       ?internal_pop_if_present@concurrent_queue_base@internal@tbb@@IAE_NPAX@Z 10001c10 f   concurrent_queue_v2.obj
 0001:00000cf0       ?internal_size@concurrent_queue_base@internal@tbb@@IBEHXZ 10001cf0 f   concurrent_queue_v2.obj
 0001:00000d60       ?internal_set_capacity@concurrent_queue_base@internal@tbb@@IAEXHI@Z 10001d60 f   concurrent_queue_v2.obj
 0001:00000da0       ??0concurrent_queue_iterator_base@internal@tbb@@IAE@ABVconcurrent_queue_base@12@@Z 10001da0 f   concurrent_queue_v2.obj
 0001:00000e60       ?assign@concurrent_queue_iterator_base@internal@tbb@@IAEXABV123@@Z 10001e60 f   concurrent_queue_v2.obj
 0001:00000f10       ?advance@concurrent_queue_iterator_base@internal@tbb@@IAEXXZ 10001f10 f   concurrent_queue_v2.obj
 0001:00001020       ??1concurrent_queue_iterator_base@internal@tbb@@IAE@XZ 10002020 f   concurrent_queue_v2.obj
 0001:00001110       ?push@micro_queue@internal@tbb@@QAEXPBXIAAVconcurrent_queue_base@23@@Z 10002110 f   concurrent_queue_v2.obj
 0001:000012f0       ?pop@micro_queue@internal@tbb@@QAE_NPAXIAAVconcurrent_queue_base@23@@Z 100022f0 f   concurrent_queue_v2.obj
 0001:00001480       ??$__TBB_machine_load_with_acquire@H@@YAHADH@Z 10002480 f i concurrent_queue_v2.obj
 0001:000014a0       ??$__TBB_machine_store_with_release@HH@@YAXAAHH@Z 100024a0 f i concurrent_queue_v2.obj
 0001:000014c0       ??$compare_and_swap@$0A@@?$atomic_impl@I@internal@tbb@@QAEIII@Z 100024c0 f i concurrent_queue_v2.obj
 0001:00001560       ??$fetch_and_add@$0A@@?$atomic_impl_with_arithmetic@IID@internal@tbb@@QAEII@Z 10002560 f i concurrent_queue_v2.obj
 0001:00001590       ??$spin_wait_until_eq@U?$atomic@I@tbb@@I@internal@tbb@@YAXADU?$atomic@I@1@I@Z 10002590 f i concurrent_queue_v2.obj
 0001:00001610       ??$spin_wait_while_eq@U?$atomic@I@tbb@@I@internal@tbb@@YAXADU?$atomic@I@1@I@Z 10002610 f i concurrent_queue_v2.obj
 0001:00001690       ??0?$cache_aligned_allocator@Vconcurrent_queue_rep@internal@tbb@@@tbb@@QAE@XZ 10002690 f i concurrent_queue_v2.obj
 0001:000016b0       ??0atomic_backoff@internal@tbb@@QAE@XZ 100026b0 f i concurrent_queue_v2.obj
 0001:000016d0       ??0concurrent_queue_iterator_rep@internal@tbb@@QAE@ABVconcurrent_queue_base@12@@Z 100026d0 f i concurrent_queue_v2.obj
 0001:00001760       ??0no_copy@internal@tbb@@QAE@XZ 10002760 f i concurrent_queue_v2.obj
 0001:00001780       ??0pop_finalizer@micro_queue@internal@tbb@@QAE@AAU123@IPAUpage@concurrent_queue_base@23@@Z 10002780 f i concurrent_queue_v2.obj
 0001:000017d0       ??0push_finalizer@micro_queue@internal@tbb@@QAE@AAU123@I@Z 100027d0 f i concurrent_queue_v2.obj
 0001:00001810       ??0scoped_lock@spin_mutex@tbb@@QAE@AAV12@@Z 10002810 f i concurrent_queue_v2.obj
 0001:00001850       ??1pop_finalizer@micro_queue@internal@tbb@@QAE@XZ 10002850 f i concurrent_queue_v2.obj
 0001:00001970       ??1push_finalizer@micro_queue@internal@tbb@@QAE@XZ 10002970 f i concurrent_queue_v2.obj
 0001:000019a0       ??1scoped_lock@spin_mutex@tbb@@QAE@XZ 100029a0 f i concurrent_queue_v2.obj
 0001:000019d0       ??4?$atomic@I@tbb@@QAEII@Z 100029d0 f i concurrent_queue_v2.obj
 0001:00001a00       ??4?$atomic@PAUpage@concurrent_queue_base@internal@tbb@@@tbb@@QAEPAUpage@concurrent_queue_base@internal@1@PAU2341@@Z 10002a00 f i concurrent_queue_v2.obj
 0001:00001a30       ??B?$atomic_impl@I@internal@tbb@@QDEIXZ 10002a30 f i concurrent_queue_v2.obj
 0001:00001aa0       ??B?$atomic_impl@PAUpage@concurrent_queue_base@internal@tbb@@@internal@tbb@@QDEPAUpage@concurrent_queue_base@12@XZ 10002aa0 f i concurrent_queue_v2.obj
 0001:00001b10       ??E?$atomic_impl_with_arithmetic@IID@internal@tbb@@QAEIH@Z 10002b10 f i concurrent_queue_v2.obj
 0001:00001b40       ??_Gconcurrent_queue_base@internal@tbb@@MAEPAXI@Z 10002b40 f i concurrent_queue_v2.obj
 0001:00001b40       ??_Econcurrent_queue_base@internal@tbb@@MAEPAXI@Z 10002b40 f i concurrent_queue_v2.obj
 0001:00001b80       ?allocate@?$cache_aligned_allocator@Vconcurrent_queue_rep@internal@tbb@@@tbb@@QAEPAVconcurrent_queue_rep@internal@2@IPBX@Z 10002b80 f i concurrent_queue_v2.obj
 0001:00001bc0       ?choose@concurrent_queue_iterator_rep@internal@tbb@@QAEPAXI@Z 10002bc0 f i concurrent_queue_v2.obj
 0001:00001c70       ?choose@concurrent_queue_rep@internal@tbb@@QAEAAUmicro_queue@23@I@Z 10002c70 f i concurrent_queue_v2.obj
 0001:00001cb0       ?compare_and_swap@?$atomic_impl@I@internal@tbb@@QAEIII@Z 10002cb0 f i concurrent_queue_v2.obj
 0001:00001ce0       ?compare_and_swap@?$atomic_traits@$03$0A@@internal@tbb@@SAHPCXHH@Z 10002ce0 f i concurrent_queue_v2.obj
 0001:00001d00       ?deallocate@?$cache_aligned_allocator@Vconcurrent_queue_rep@internal@tbb@@@tbb@@QAEXPAVconcurrent_queue_rep@internal@2@I@Z 10002d00 f i concurrent_queue_v2.obj
 0001:00001d30       ?fetch_and_add@?$atomic_impl_with_arithmetic@IID@internal@tbb@@QAEII@Z 10002d30 f i concurrent_queue_v2.obj
 0001:00001d60       ?fetch_and_add@?$atomic_traits@$03$0A@@internal@tbb@@SAHPCXH@Z 10002d60 f i concurrent_queue_v2.obj
 0001:00001d80       ?index@concurrent_queue_rep@internal@tbb@@SAII@Z 10002d80 f i concurrent_queue_v2.obj
 0001:00001da0       ?load_with_acquire@?$__TBB_machine_load_store@H$03@@SAHADH@Z 10002da0 f i concurrent_queue_v2.obj
 0001:00001dc0       ?pause@atomic_backoff@internal@tbb@@QAEXXZ 10002dc0 f i concurrent_queue_v2.obj
 0001:00001e20       ?store_with_release@?$__TBB_machine_load_store@H$03@@SAXACHH@Z 10002e20 f i concurrent_queue_v2.obj
 0001:00001e30       ?store_with_release@?$atomic_impl@I@internal@tbb@@IAEII@Z 10002e30 f i concurrent_queue_v2.obj
 0001:00001ea0       ?store_with_release@?$atomic_impl@PAUpage@concurrent_queue_base@internal@tbb@@@internal@tbb@@IAEPAUpage@concurrent_queue_base@23@PAU4523@@Z 10002ea0 f i concurrent_queue_v2.obj
 0001:00001fe0       ?internal_reserve@concurrent_vector_base@internal@tbb@@IAEXIII@Z 10002fe0 f   concurrent_vector_v2.obj
 0001:000020e0       ?internal_capacity@concurrent_vector_base@internal@tbb@@IBEIXZ 100030e0 f   concurrent_vector_v2.obj
 0001:00002120       ?internal_grow_to_at_least@concurrent_vector_base@internal@tbb@@IAEXIIP6AXPAXI@Z@Z 10003120 f   concurrent_vector_v2.obj
 0001:000021a0       ?internal_grow@concurrent_vector_base@internal@tbb@@IAEXIIIP6AXPAXI@Z@Z 100031a0 f   concurrent_vector_v2.obj
 0001:00002390       ?internal_grow_by@concurrent_vector_base@internal@tbb@@IAEIIIP6AXPAXI@Z@Z 10003390 f   concurrent_vector_v2.obj
 0001:000023f0       ?internal_push_back@concurrent_vector_base@internal@tbb@@IAEPAXIAAI@Z 100033f0 f   concurrent_vector_v2.obj
 0001:000025a0       ?internal_clear@concurrent_vector_base@internal@tbb@@IAEXP6AXPAXI@Z_N@Z 100035a0 f   concurrent_vector_v2.obj
 0001:00002780       ?internal_copy@concurrent_vector_base@internal@tbb@@IAEXABV123@IP6AXPAXPBXI@Z@Z 10003780 f   concurrent_vector_v2.obj
 0001:000028e0       ?internal_assign@concurrent_vector_base@internal@tbb@@IAEXABV123@IP6AXPAXI@ZP6AX1PBXI@Z4@Z 100038e0 f   concurrent_vector_v2.obj
 0001:00002b80       ?extend_segment@helper@concurrent_vector_base@internal@tbb@@CAXAAV234@@Z 10003b80 f   concurrent_vector_v2.obj
 0001:00002ca0       ??$_Allocate@D@std@@YAPADIPAD@Z 10003ca0 f i concurrent_vector_v2.obj
 0001:00002d00       ??$_Allocate@U_Container_proxy@std@@@std@@YAPAU_Container_proxy@0@IPAU10@@Z 10003d00 f i concurrent_vector_v2.obj
 0001:00002d60       ??$_Debug_pointer@D@std@@YAXPBDPB_WI@Z 10003d60 f i concurrent_vector_v2.obj
 0001:00002da0       ??$addressof@D@std@@YAPADAAD@Z 10003da0 f i concurrent_vector_v2.obj
 0001:00002db0       ??$compare_and_swap@$0A@@?$atomic_impl@PAUsegment_t@concurrent_vector_base@internal@tbb@@@internal@tbb@@QAEPAUsegment_t@concurrent_vector_base@12@PAU3412@0@Z 10003db0 f i concurrent_vector_v2.obj
 0001:00002e50       ??$construct@PADAAPAD@?$_Wrap_alloc@V?$allocator@D@std@@@std@@QAEXPAPADAAPAD@Z 10003e50 f i concurrent_vector_v2.obj
 0001:00002e90       ??$construct@PADAAPAD@?$allocator@D@std@@QAEXPAPADAAPAD@Z 10003e90 f i concurrent_vector_v2.obj
 0001:00002f40       ??$construct@PADAAPAD@?$allocator_traits@V?$allocator@D@std@@@std@@SAXAAV?$allocator@D@1@PAPADAAPAD@Z 10003f40 f i concurrent_vector_v2.obj
 0001:00002f70       ??$construct@U_Container_proxy@std@@U12@@?$allocator@U_Container_proxy@std@@@std@@QAEXPAU_Container_proxy@1@$$QAU21@@Z 10003f70 f i concurrent_vector_v2.obj
 0001:00003020       ??$destroy@PAD@?$_Wrap_alloc@V?$allocator@D@std@@@std@@QAEXPAPAD@Z 10004020 f i concurrent_vector_v2.obj
 0001:00003050       ??$destroy@PAD@?$allocator@D@std@@QAEXPAPAD@Z 10004050 f i concurrent_vector_v2.obj
 0001:00003070       ??$destroy@PAD@?$allocator_traits@V?$allocator@D@std@@@std@@SAXAAV?$allocator@D@1@PAPAD@Z 10004070 f i concurrent_vector_v2.obj
 0001:00003090       ??$destroy@U_Container_proxy@std@@@?$allocator@U_Container_proxy@std@@@std@@QAEXPAU_Container_proxy@1@@Z 10004090 f i concurrent_vector_v2.obj
 0001:000030b0       ??$forward@AAPAD@std@@YAAAPADAAPAD@Z 100040b0 f i concurrent_vector_v2.obj
 0001:000030c0       ??$forward@U_Container_proxy@std@@@std@@YA$$QAU_Container_proxy@0@AAU10@@Z 100040c0 f i concurrent_vector_v2.obj
 0001:000030d0       ??$spin_wait_while_eq@PAXPAX@internal@tbb@@YAXADSAXPAX@Z 100040d0 f i concurrent_vector_v2.obj
 0001:00003150       ??0?$_String_alloc@$0A@U?$_String_base_types@DV?$allocator@D@std@@@std@@@std@@QAE@ABV?$allocator@D@1@@Z 10004150 f i concurrent_vector_v2.obj
 0001:000031c0       ??0?$_String_val@U?$_Simple_types@D@std@@@std@@QAE@XZ 100041c0 f i concurrent_vector_v2.obj
 0001:00003210       ??0?$_Wrap_alloc@V?$allocator@D@std@@@std@@QAE@XZ 10004210 f i concurrent_vector_v2.obj
 0001:00003240       ??0?$allocator@D@std@@QAE@XZ 10004240 f i concurrent_vector_v2.obj
 0001:00003260       ??0?$allocator@U_Container_proxy@std@@@std@@QAE@XZ 10004260 f i concurrent_vector_v2.obj
 0001:00003280       ??0?$basic_string@DU?$char_traits@D@std@@V?$allocator@D@2@@std@@QAE@PBD@Z 10004280 f i concurrent_vector_v2.obj
 0001:00003310       ??0_Container_proxy@std@@QAE@XZ 10004310 f i concurrent_vector_v2.obj
 0001:00003340       ??0_Generic_error_category@std@@QAE@XZ 10004340 f i concurrent_vector_v2.obj
 0001:00003370       ??0_Iostream_error_category@std@@QAE@XZ 10004370 f i concurrent_vector_v2.obj
 0001:000033a0       ??0_System_error_category@std@@QAE@XZ 100043a0 f i concurrent_vector_v2.obj
 0001:000033d0       ??0error_category@std@@QAE@XZ 100043d0 f i concurrent_vector_v2.obj
 0001:000033f0       ??0error_condition@std@@QAE@HABVerror_category@1@@Z 100043f0 f i concurrent_vector_v2.obj
 0001:00003420       ??0length_error@std@@QAE@ABV01@@Z 10004420 f i concurrent_vector_v2.obj
 0001:00003460       ??0length_error@std@@QAE@PBD@Z 10004460 f i concurrent_vector_v2.obj
 0001:000034a0       ??0logic_error@std@@QAE@ABV01@@Z 100044a0 f i concurrent_vector_v2.obj
 0001:000034f0       ??0logic_error@std@@QAE@PBD@Z 100044f0 f i concurrent_vector_v2.obj
 0001:00003540       ??1?$_String_alloc@$0A@U?$_String_base_types@DV?$allocator@D@std@@@std@@@std@@QAE@XZ 10004540 f i concurrent_vector_v2.obj
 0001:00003570       ??1?$_String_val@U?$_Simple_types@D@std@@@std@@QAE@XZ 10004570 f i concurrent_vector_v2.obj
 0001:000035a0       ??1_Generic_error_category@std@@UAE@XZ 100045a0 f i concurrent_vector_v2.obj
 0001:000035d0       ??1_Iostream_error_category@std@@UAE@XZ 100045d0 f i concurrent_vector_v2.obj
 0001:00003600       ??1_System_error_category@std@@UAE@XZ 10004600 f i concurrent_vector_v2.obj
 0001:00003630       ??1error_category@std@@UAE@XZ 10004630 f i concurrent_vector_v2.obj
 0001:00003650       ??1length_error@std@@UAE@XZ 10004650 f i concurrent_vector_v2.obj
 0001:00003680       ??1logic_error@std@@UAE@XZ 10004680 f i concurrent_vector_v2.obj
 0001:000036b0       ??2@YAPAXIPAX@Z            100046b0 f i concurrent_vector_v2.obj
 0001:000036c0       ??3@YAXPAX0@Z              100046c0 f i concurrent_vector_v2.obj
 0001:000036d0       ??4?$atomic@PAUsegment_t@concurrent_vector_base@internal@tbb@@@tbb@@QAEPAUsegment_t@concurrent_vector_base@internal@1@PAU2341@@Z 100046d0 f i concurrent_vector_v2.obj
 0001:00003700       ??8error_category@std@@QBE_NABV01@@Z 10004700 f i concurrent_vector_v2.obj
 0001:00003740       ??8error_condition@std@@QBE_NABV01@@Z 10004740 f i concurrent_vector_v2.obj
 0001:000037c0       ??B?$atomic_impl@PAUsegment_t@concurrent_vector_base@internal@tbb@@@internal@tbb@@QDEPAUsegment_t@concurrent_vector_base@12@XZ 100047c0 f i concurrent_vector_v2.obj
 0001:00003830       ??_E_Generic_error_category@std@@UAEPAXI@Z 10004830 f i concurrent_vector_v2.obj
 0001:00003830       ??_G_Generic_error_category@std@@UAEPAXI@Z 10004830 f i concurrent_vector_v2.obj
 0001:00003870       ??_G_Iostream_error_category@std@@UAEPAXI@Z 10004870 f i concurrent_vector_v2.obj
 0001:00003870       ??_E_Iostream_error_category@std@@UAEPAXI@Z 10004870 f i concurrent_vector_v2.obj
 0001:000038b0       ??_E_System_error_category@std@@UAEPAXI@Z 100048b0 f i concurrent_vector_v2.obj
 0001:000038b0       ??_G_System_error_category@std@@UAEPAXI@Z 100048b0 f i concurrent_vector_v2.obj
 0001:000038f0       ??_Eerror_category@std@@UAEPAXI@Z 100048f0 f i concurrent_vector_v2.obj
 0001:000038f0       ??_Gerror_category@std@@UAEPAXI@Z 100048f0 f i concurrent_vector_v2.obj
 0001:00003930       ??_Glength_error@std@@UAEPAXI@Z 10004930 f i concurrent_vector_v2.obj
 0001:00003930       ??_Elength_error@std@@UAEPAXI@Z 10004930 f i concurrent_vector_v2.obj
 0001:00003970       ??_Elogic_error@std@@UAEPAXI@Z 10004970 f i concurrent_vector_v2.obj
 0001:00003970       ??_Glogic_error@std@@UAEPAXI@Z 10004970 f i concurrent_vector_v2.obj
 0001:000039b0       ?_Alloc_proxy@?$_String_alloc@$0A@U?$_String_base_types@DV?$allocator@D@std@@@std@@@std@@QAEXXZ 100049b0 f i concurrent_vector_v2.obj
 0001:00003a50       ?_Copy@?$basic_string@DU?$char_traits@D@std@@V?$allocator@D@2@@std@@QAEXII@Z 10004a50 f i concurrent_vector_v2.obj
 0001:00003c50       ?_Eos@?$basic_string@DU?$char_traits@D@std@@V?$allocator@D@2@@std@@QAEXI@Z 10004c50 f i concurrent_vector_v2.obj
 0001:00003ca0       ?_Free_proxy@?$_String_alloc@$0A@U?$_String_base_types@DV?$allocator@D@std@@@std@@@std@@QAEXXZ 10004ca0 f i concurrent_vector_v2.obj
 0001:00003d40       ?_Getal@?$_String_alloc@$0A@U?$_String_base_types@DV?$allocator@D@std@@@std@@@std@@QBE?AU?$_Wrap_alloc@V?$allocator@D@std@@@2@XZ 10004d40 f i concurrent_vector_v2.obj
 0001:00003d70       ?_Grow@?$basic_string@DU?$char_traits@D@std@@V?$allocator@D@2@@std@@QAE_NI_N@Z 10004d70 f i concurrent_vector_v2.obj
 0001:00003e40       ?_Inside@?$basic_string@DU?$char_traits@D@std@@V?$allocator@D@2@@std@@QAE_NPBD@Z 10004e40 f i concurrent_vector_v2.obj
 0001:00003e90       ?_Myptr@?$_String_val@U?$_Simple_types@D@std@@@std@@QAEPADXZ 10004e90 f i concurrent_vector_v2.obj
 0001:00003ee0       ?_Myptr@?$_String_val@U?$_Simple_types@D@std@@@std@@QBEPBDXZ 10004ee0 f i concurrent_vector_v2.obj
 0001:00003f30       ?_Tidy@?$basic_string@DU?$char_traits@D@std@@V?$allocator@D@2@@std@@QAEX_NI@Z 10004f30 f i concurrent_vector_v2.obj
 0001:00004000       ?_Xlen@?$basic_string@DU?$char_traits@D@std@@V?$allocator@D@2@@std@@QBEXXZ 10005000 f i concurrent_vector_v2.obj
 0001:00004040       ?_Xran@?$basic_string@DU?$char_traits@D@std@@V?$allocator@D@2@@std@@QBEXXZ 10005040 f i concurrent_vector_v2.obj
 0001:00004080       ?allocate@?$_Wrap_alloc@V?$allocator@D@std@@@std@@QAEPADI@Z 10005080 f i concurrent_vector_v2.obj
 0001:000040b0       ?allocate@?$allocator@D@std@@QAEPADI@Z 100050b0 f i concurrent_vector_v2.obj
 0001:000040e0       ?allocate@?$allocator@U_Container_proxy@std@@@std@@QAEPAU_Container_proxy@2@I@Z 100050e0 f i concurrent_vector_v2.obj
 0001:00004110       ?assign@?$basic_string@DU?$char_traits@D@std@@V?$allocator@D@2@@std@@QAEAAV12@ABV12@II@Z 10005110 f i concurrent_vector_v2.obj
 0001:000041e0       ?assign@?$basic_string@DU?$char_traits@D@std@@V?$allocator@D@2@@std@@QAEAAV12@PBD@Z 100051e0 f i concurrent_vector_v2.obj
 0001:00004230       ?assign@?$basic_string@DU?$char_traits@D@std@@V?$allocator@D@2@@std@@QAEAAV12@PBDI@Z 10005230 f i concurrent_vector_v2.obj
 0001:000042e0       ?assign@?$char_traits@D@std@@SAXAADABD@Z 100052e0 f i concurrent_vector_v2.obj
 0001:000042f0       ?category@error_code@std@@QBEABVerror_category@2@XZ 100052f0 f i concurrent_vector_v2.obj
 0001:00004310       ?category@error_condition@std@@QBEABVerror_category@2@XZ 10005310 f i concurrent_vector_v2.obj
 0001:00004330       ?compare_and_swap@?$atomic_impl@PAUsegment_t@concurrent_vector_base@internal@tbb@@@internal@tbb@@QAEPAUsegment_t@concurrent_vector_base@23@PAU4523@0@Z 10005330 f i concurrent_vector_v2.obj
 0001:00004360       ?copy@?$char_traits@D@std@@SAPADPADPBDI@Z 10005360 f i concurrent_vector_v2.obj
 0001:000043b0       ?deallocate@?$_Wrap_alloc@V?$allocator@D@std@@@std@@QAEXPADI@Z 100053b0 f i concurrent_vector_v2.obj
 0001:000043e0       ?deallocate@?$allocator@D@std@@QAEXPADI@Z 100053e0 f i concurrent_vector_v2.obj
 0001:00004410       ?deallocate@?$allocator@U_Container_proxy@std@@@std@@QAEXPAU_Container_proxy@2@I@Z 10005410 f i concurrent_vector_v2.obj
 0001:00004440       ?default_error_condition@_System_error_category@std@@UBE?AVerror_condition@2@H@Z 10005440 f i concurrent_vector_v2.obj
 0001:000044b0       ?default_error_condition@error_category@std@@UBE?AVerror_condition@2@H@Z 100054b0 f i concurrent_vector_v2.obj
 0001:000044f0       ?equivalent@error_category@std@@UBE_NABVerror_code@2@H@Z 100054f0 f i concurrent_vector_v2.obj
 0001:00004550       ?equivalent@error_category@std@@UBE_NHABVerror_condition@2@@Z 10005550 f i concurrent_vector_v2.obj
 0001:000045b0       ?erase@?$basic_string@DU?$char_traits@D@std@@V?$allocator@D@2@@std@@QAEAAV12@I@Z 100055b0 f i concurrent_vector_v2.obj
 0001:000045f0       ?erase@?$basic_string@DU?$char_traits@D@std@@V?$allocator@D@2@@std@@QAEAAV12@II@Z 100055f0 f i concurrent_vector_v2.obj
 0001:000046a0       ?extend_segment_if_necessary@helper@concurrent_vector_base@internal@tbb@@SAXAAV234@I@Z 100056a0 f i concurrent_vector_v2.obj
 0001:000046f0       ?find_segment_end@helper@concurrent_vector_base@internal@tbb@@SAKABV234@@Z 100056f0 f i concurrent_vector_v2.obj
 0001:00004790       ?generic_category@std@@YAABVerror_category@1@XZ 10005790 f i concurrent_vector_v2.obj
 0001:000047a0       ?length@?$char_traits@D@std@@SAIPBD@Z 100057a0 f i concurrent_vector_v2.obj
 0001:000047e0       ?max_size@?$_Wrap_alloc@V?$allocator@D@std@@@std@@QBEIXZ 100057e0 f i concurrent_vector_v2.obj
 0001:00004810       ?max_size@?$allocator@D@std@@QBEIXZ 10005810 f i concurrent_vector_v2.obj
 0001:00004830       ?max_size@?$allocator_traits@V?$allocator@D@std@@@std@@SAIABV?$allocator@D@2@@Z 10005830 f i concurrent_vector_v2.obj
 0001:00004850       ?max_size@?$basic_string@DU?$char_traits@D@std@@V?$allocator@D@2@@std@@QBEIXZ 10005850 f i concurrent_vector_v2.obj
 0001:000048b0       ?message@_Generic_error_category@std@@UBE?AV?$basic_string@DU?$char_traits@D@std@@V?$allocator@D@2@@2@H@Z 100058b0 f i concurrent_vector_v2.obj
 0001:00004930       ?message@_Iostream_error_category@std@@UBE?AV?$basic_string@DU?$char_traits@D@std@@V?$allocator@D@2@@2@H@Z 10005930 f i concurrent_vector_v2.obj
 0001:000049a0       ?message@_System_error_category@std@@UBE?AV?$basic_string@DU?$char_traits@D@std@@V?$allocator@D@2@@2@H@Z 100059a0 f i concurrent_vector_v2.obj
 0001:00004a20       ?move@?$char_traits@D@std@@SAPADPADPBDI@Z 10005a20 f i concurrent_vector_v2.obj
 0001:00004a70       ?name@_Generic_error_category@std@@UBEPBDXZ 10005a70 f i concurrent_vector_v2.obj
 0001:00004a90       ?name@_Iostream_error_category@std@@UBEPBDXZ 10005a90 f i concurrent_vector_v2.obj
 0001:00004ab0       ?name@_System_error_category@std@@UBEPBDXZ 10005ab0 f i concurrent_vector_v2.obj
 0001:00004ad0       ?segment_base@concurrent_vector_base@internal@tbb@@KAKK@Z 10005ad0 f i concurrent_vector_v2.obj
 0001:00004af0       ?segment_index_of@concurrent_vector_base@internal@tbb@@KAKI@Z 10005af0 f i concurrent_vector_v2.obj
 0001:00004b40       ?segment_size@concurrent_vector_base@internal@tbb@@KAKK@Z 10005b40 f i concurrent_vector_v2.obj
 0001:00004bd0       ?size@?$basic_string@DU?$char_traits@D@std@@V?$allocator@D@2@@std@@QBEIXZ 10005bd0 f i concurrent_vector_v2.obj
 0001:00004bf0       ?store_with_release@?$atomic_impl@PAUsegment_t@concurrent_vector_base@internal@tbb@@@internal@tbb@@IAEPAUsegment_t@concurrent_vector_base@23@PAU4523@@Z 10005bf0 f i concurrent_vector_v2.obj
 0001:00004c60       ?system_category@std@@YAABVerror_category@1@XZ 10005c60 f i concurrent_vector_v2.obj
 0001:00004c70       ?value@error_code@std@@QBEHXZ 10005c70 f i concurrent_vector_v2.obj
 0001:00004c90       ?value@error_condition@std@@QBEHXZ 10005c90 f i concurrent_vector_v2.obj
 0001:00004cb0       _hypot                     10005cb0 f i concurrent_vector_v2.obj
 0001:00004cf0       ?internal_itt_releasing@spin_rw_mutex@tbb@@CAXPAV12@@Z 10005cf0 f   spin_rw_mutex_v2.obj
 0001:00004d20       ?internal_acquire_writer@spin_rw_mutex@tbb@@CA_NPAV12@@Z 10005d20 f   spin_rw_mutex_v2.obj
 0001:00004e40       ?internal_release_writer@spin_rw_mutex@tbb@@CAXPAV12@@Z 10005e40 f   spin_rw_mutex_v2.obj
 0001:00004ea0       ?internal_acquire_reader@spin_rw_mutex@tbb@@CAXPAV12@@Z 10005ea0 f   spin_rw_mutex_v2.obj
 0001:00004fd0       ?internal_upgrade@spin_rw_mutex@tbb@@CA_NPAV12@@Z 10005fd0 f   spin_rw_mutex_v2.obj
 0001:00005190       ?internal_downgrade@spin_rw_mutex@tbb@@CAXPAV12@@Z 10006190 f   spin_rw_mutex_v2.obj
 0001:00005240       ?internal_release_reader@spin_rw_mutex@tbb@@CAXPAV12@@Z 10006240 f   spin_rw_mutex_v2.obj
 0001:000052d0       ?internal_try_acquire_writer@spin_rw_mutex@tbb@@CA_NPAV12@@Z 100062d0 f   spin_rw_mutex_v2.obj
 0001:00005340       ?internal_try_acquire_reader@spin_rw_mutex@tbb@@CA_NPAV12@@Z 10006340 f   spin_rw_mutex_v2.obj
 0001:000054d0       ?reset@atomic_backoff@internal@tbb@@QAEXXZ 100064d0 f i spin_rw_mutex_v2.obj
 0001:000054f0       ?open@tbb_factory@rml@internal@tbb@@QAE?AW4status_type@factory@2@XZ 100064f0 f   rml_tbb.obj
 0001:00005680       ?make_server@tbb_factory@rml@internal@tbb@@QAE?AW4status_type@factory@2@AAPAVtbb_server@234@AAVtbb_client@234@@Z 10006680 f   rml_tbb.obj
 0001:000056f0       ?close@tbb_factory@rml@internal@tbb@@QAEXXZ 100066f0 f   rml_tbb.obj
 0001:00005760       ?call_with_server_info@tbb_factory@rml@internal@tbb@@QBEXP6AXPAXPBD@Z0@Z 10006760 f   rml_tbb.obj
 0001:000057d0       ?NFS_GetLineSize@internal@tbb@@YAIXZ 100067d0 f   cache_aligned_allocator.obj
 0001:000057e0       ?NFS_Allocate@internal@tbb@@YAPAXIIPAX@Z 100067e0 f   cache_aligned_allocator.obj
 0001:00005960       ?NFS_Free@internal@tbb@@YAXPAX@Z 10006960 f   cache_aligned_allocator.obj
 0001:00005a30       ?deallocate_via_handler_v3@internal@tbb@@YAXPAX@Z 10006a30 f   cache_aligned_allocator.obj
 0001:00005a60       ?allocate_via_handler_v3@internal@tbb@@YAPAXI@Z 10006a60 f   cache_aligned_allocator.obj
 0001:00005ac0       ?is_malloc_used_v3@internal@tbb@@YA_NXZ 10006ac0 f   cache_aligned_allocator.obj
 0001:00005c70       ?initialize_cache_aligned_allocator@internal@tbb@@YAXXZ 10006c70 f   cache_aligned_allocator.obj
 0001:00005d20       ??0bad_alloc@std@@QAE@ABV01@@Z 10006d20 f i cache_aligned_allocator.obj
 0001:00005d70       ??0bad_alloc@std@@QAE@XZ   10006d70 f i cache_aligned_allocator.obj
 0001:00005dd0       ??1bad_alloc@std@@UAE@XZ   10006dd0 f i cache_aligned_allocator.obj
 0001:00005e10       ??_Ebad_alloc@std@@UAEPAXI@Z 10006e10 f i cache_aligned_allocator.obj
 0001:00005e10       ??_Gbad_alloc@std@@UAEPAXI@Z 10006e10 f i cache_aligned_allocator.obj
 0001:00005e50       ?internal_grow_predicate@hash_map_segment_base@internal@tbb@@QBE_NXZ 10006e50 f   concurrent_hash_map.obj
 0001:00005f50       ??0concurrent_queue_base_v3@internal@tbb@@IAE@I@Z 10006f50 f   concurrent_queue.obj
 0001:000061d0       ??1concurrent_queue_base_v3@internal@tbb@@MAE@XZ 100071d0 f   concurrent_queue.obj
 0001:000062e0       ?internal_push@concurrent_queue_base_v3@internal@tbb@@IAEXPBX@Z 100072e0 f   concurrent_queue.obj
 0001:000065e0       ?internal_pop@concurrent_queue_base_v3@internal@tbb@@IAEXPAX@Z 100075e0 f   concurrent_queue.obj
 0001:000068a0       ?internal_push_if_not_full@concurrent_queue_base_v3@internal@tbb@@IAE_NPBX@Z 100078a0 f   concurrent_queue.obj
 0001:000069e0       ?internal_pop_if_present@concurrent_queue_base_v3@internal@tbb@@IAE_NPAX@Z 100079e0 f   concurrent_queue.obj
 0001:00006b30       ?internal_size@concurrent_queue_base_v3@internal@tbb@@IBEHXZ 10007b30 f   concurrent_queue.obj
 0001:00006bb0       ?internal_empty@concurrent_queue_base_v3@internal@tbb@@IBE_NXZ 10007bb0 f   concurrent_queue.obj
 0001:00006c40       ?internal_set_capacity@concurrent_queue_base_v3@internal@tbb@@IAEXHI@Z 10007c40 f   concurrent_queue.obj
 0001:00006c80       ?internal_finish_clear@concurrent_queue_base_v3@internal@tbb@@IAEXXZ 10007c80 f   concurrent_queue.obj
 0001:00006d70       ?internal_throw_exception@concurrent_queue_base_v3@internal@tbb@@IBEXXZ 10007d70 f   concurrent_queue.obj
 0001:00006db0       ?assign@concurrent_queue_base_v3@internal@tbb@@IAEXABV123@@Z 10007db0 f   concurrent_queue.obj
 0001:00006ef0       ??0concurrent_queue_iterator_base_v3@internal@tbb@@IAE@ABVconcurrent_queue_base_v3@12@@Z 10007ef0 f   concurrent_queue.obj
 0001:00006fe0       ?assign@concurrent_queue_iterator_base_v3@internal@tbb@@IAEXABV123@@Z 10007fe0 f   concurrent_queue.obj
 0001:000070b0       ?advance@concurrent_queue_iterator_base_v3@internal@tbb@@IAEXXZ 100080b0 f   concurrent_queue.obj
 0001:00007200       ??1concurrent_queue_iterator_base_v3@internal@tbb@@IAE@XZ 10008200 f   concurrent_queue.obj
 0001:00007250       ?push@micro_queue@internal@tbb@@QAEXPBXIAAVconcurrent_queue_base_v3@23@@Z 10008250 f   concurrent_queue.obj
 0001:00007530       ?pop@micro_queue@internal@tbb@@QAE_NPAXIAAVconcurrent_queue_base_v3@23@@Z 10008530 f   concurrent_queue.obj
 0001:00007750       ?assign@micro_queue@internal@tbb@@QAEAAU123@ABU123@AAVconcurrent_queue_base_v3@23@@Z 10008750 f   concurrent_queue.obj
 0001:00007a30       ?make_copy@micro_queue@internal@tbb@@QAEPAUpage@concurrent_queue_base_v3@23@AAV523@PBU4523@IIAAI@Z 10008a30 f   concurrent_queue.obj
 0001:00007af0       ?make_invalid@micro_queue@internal@tbb@@QAEXI@Z 10008af0 f   concurrent_queue.obj
 0001:00007c10       ??0?$cache_aligned_allocator@Vconcurrent_queue_iterator_rep@internal@tbb@@@tbb@@QAE@XZ 10008c10 f i concurrent_queue.obj
 0001:00007c30       ??0bad_last_alloc@tbb@@QAE@ABV01@@Z 10008c30 f i concurrent_queue.obj
 0001:00007c70       ??0bad_last_alloc@tbb@@QAE@XZ 10008c70 f i concurrent_queue.obj
 0001:00007ca0       ??0concurrent_queue_iterator_rep@internal@tbb@@QAE@ABVconcurrent_queue_base_v3@12@@Z 10008ca0 f i concurrent_queue.obj
 0001:00007d30       ??0micro_queue_pop_finalizer@internal@tbb@@QAE@AAUmicro_queue@12@AAVconcurrent_queue_base_v3@12@IPAUpage@412@@Z 10008d30 f i concurrent_queue.obj
 0001:00007d80       ??1bad_last_alloc@tbb@@UAE@XZ 10008d80 f i concurrent_queue.obj
 0001:00007db0       ??1micro_queue_pop_finalizer@internal@tbb@@QAE@XZ 10008db0 f i concurrent_queue.obj
 0001:00007ee0       ??4?$atomic@I@tbb@@QAEAAU01@ABU01@@Z 10008ee0 f i concurrent_queue.obj
 0001:00007f20       ??4?$atomic@PAUpage@concurrent_queue_base_v3@internal@tbb@@@tbb@@QAEPAUpage@concurrent_queue_base_v3@internal@1@PAU2341@@Z 10008f20 f i concurrent_queue.obj
 0001:00007f50       ??B?$atomic_impl@PAUpage@concurrent_queue_base_v3@internal@tbb@@@internal@tbb@@QDEPAUpage@concurrent_queue_base_v3@12@XZ 10008f50 f i concurrent_queue.obj
 0001:00007fc0       ??E?$atomic_impl_with_arithmetic@IID@internal@tbb@@QAEIXZ 10008fc0 f i concurrent_queue.obj
 0001:00007ff0       ??F?$atomic_impl_with_arithmetic@IID@internal@tbb@@QAEIXZ 10008ff0 f i concurrent_queue.obj
 0001:00008020       ??Y?$atomic_impl_with_arithmetic@IID@internal@tbb@@QAEII@Z 10009020 f i concurrent_queue.obj
 0001:00008050       ??_Ebad_last_alloc@tbb@@UAEPAXI@Z 10009050 f i concurrent_queue.obj
 0001:00008050       ??_Gbad_last_alloc@tbb@@UAEPAXI@Z 10009050 f i concurrent_queue.obj
 0001:00008090       ??_Gconcurrent_queue_base_v3@internal@tbb@@MAEPAXI@Z 10009090 f i concurrent_queue.obj
 0001:00008090       ??_Econcurrent_queue_base_v3@internal@tbb@@MAEPAXI@Z 10009090 f i concurrent_queue.obj
 0001:000080d0       ?allocate@?$cache_aligned_allocator@Vconcurrent_queue_iterator_rep@internal@tbb@@@tbb@@QAEPAVconcurrent_queue_iterator_rep@internal@2@IPBX@Z 100090d0 f i concurrent_queue.obj
 0001:00008100       ?bounded_pause@atomic_backoff@internal@tbb@@QAE_NXZ 10009100 f i concurrent_queue.obj
 0001:00008150       ?deallocate@?$cache_aligned_allocator@Vconcurrent_queue_iterator_rep@internal@tbb@@@tbb@@QAEXPAVconcurrent_queue_iterator_rep@internal@2@I@Z 10009150 f i concurrent_queue.obj
 0001:00008180       ?get_item@concurrent_queue_iterator_rep@internal@tbb@@QAE_NAAPAXI@Z 10009180 f i concurrent_queue.obj
 0001:00008270       ?store_with_release@?$atomic_impl@PAUpage@concurrent_queue_base_v3@internal@tbb@@@internal@tbb@@IAEPAUpage@concurrent_queue_base_v3@23@PAU4523@@Z 10009270 f i concurrent_queue.obj
 0001:000082e0       ?what@bad_last_alloc@tbb@@UBEPBDXZ 100092e0 f i concurrent_queue.obj
 0001:000083d0       ??1concurrent_vector_base_v3@internal@tbb@@IAE@XZ 100093d0 f   concurrent_vector.obj
 0001:00008500       ?internal_reserve@concurrent_vector_base_v3@internal@tbb@@IAEXIII@Z 10009500 f   concurrent_vector.obj
 0001:00008680       ?internal_capacity@concurrent_vector_base_v3@internal@tbb@@IBEIXZ 10009680 f   concurrent_vector.obj
 0001:000086c0       ?internal_grow@concurrent_vector_base_v3@internal@tbb@@IAEXIIIP6AXPAXPBXI@Z1@Z 100096c0 f   concurrent_vector.obj
 0001:00008890       ?internal_grow_by@concurrent_vector_base_v3@internal@tbb@@IAEIIIP6AXPAXPBXI@Z1@Z 10009890 f   concurrent_vector.obj
 0001:000088f0       ?internal_push_back@concurrent_vector_base_v3@internal@tbb@@IAEPAXIAAI@Z 100098f0 f   concurrent_vector.obj
 0001:000089e0       ?internal_clear@concurrent_vector_base_v3@internal@tbb@@IAEIP6AXPAXI@Z@Z 100099e0 f   concurrent_vector.obj
 0001:00008b40       ?internal_compact@concurrent_vector_base_v3@internal@tbb@@IAEPAXIPAXP6AX0I@ZP6AX0PBXI@Z@Z 10009b40 f   concurrent_vector.obj
 0001:00009010       ?internal_copy@concurrent_vector_base_v3@internal@tbb@@IAEXABV123@IP6AXPAXPBXI@Z@Z 1000a010 f   concurrent_vector.obj
 0001:000091a0       ?internal_assign@concurrent_vector_base_v3@internal@tbb@@IAEXABV123@IP6AXPAXI@ZP6AX1PBXI@Z4@Z 1000a1a0 f   concurrent_vector.obj
 0001:00009510       ?internal_throw_exception@concurrent_vector_base_v3@internal@tbb@@IBEXI@Z 1000a510 f   concurrent_vector.obj
 0001:000095b0       ?internal_swap@concurrent_vector_base_v3@internal@tbb@@IAEXAAV123@@Z 1000a5b0 f   concurrent_vector.obj
 0001:00009800       ?internal_resize@concurrent_vector_base_v3@internal@tbb@@IAEXIIIPBXP6AXPAXI@ZP6AX10I@Z@Z 1000a800 f   concurrent_vector.obj
 0001:000099c0       ?internal_grow_to_at_least_with_result@concurrent_vector_base_v3@internal@tbb@@IAEIIIP6AXPAXPBXI@Z1@Z 1000a9c0 f   concurrent_vector.obj
 0001:00009bd0       ?internal_grow_to_at_least@concurrent_vector_base_v3@internal@tbb@@IAEXIIP6AXPAXPBXI@Z1@Z 1000abd0 f   concurrent_vector.obj
 0001:00009c10       ??$__TBB_machine_load_with_acquire@PAX@@YAPAXADSAX@Z 1000ac10 f i concurrent_vector.obj
 0001:00009c30       ??$__TBB_machine_store_with_release@PAXPAX@@YAXAAPAXPAX@Z 1000ac30 f i concurrent_vector.obj
 0001:00009c50       ??$apply@Udestroy_body@helper@concurrent_vector_base_v3@internal@tbb@@@helper@concurrent_vector_base_v3@internal@tbb@@QAEIABUdestroy_body@0123@@Z 1000ac50 f i concurrent_vector.obj
 0001:00009d20       ??$apply@Uinit_body@helper@concurrent_vector_base_v3@internal@tbb@@@helper@concurrent_vector_base_v3@internal@tbb@@QAEIABUinit_body@0123@@Z 1000ad20 f i concurrent_vector.obj
 0001:00009df0       ??$apply@Usafe_init_body@helper@concurrent_vector_base_v3@internal@tbb@@@helper@concurrent_vector_base_v3@internal@tbb@@QAEIABUsafe_init_body@0123@@Z 1000adf0 f i concurrent_vector.obj
 0001:00009ec0       ??$compare_and_swap@$0A@@?$atomic_impl@PAUsegment_t@concurrent_vector_base_v3@internal@tbb@@@internal@tbb@@QAEPAUsegment_t@concurrent_vector_base_v3@12@PAU3412@0@Z 1000aec0 f i concurrent_vector.obj
 0001:00009f60       ??$spin_wait_while_eq@U?$atomic@PAUsegment_t@concurrent_vector_base_v3@internal@tbb@@@tbb@@PAUsegment_t@concurrent_vector_base_v3@internal@2@@internal@tbb@@YAXADU?$atomic@PAUsegment_t@concurrent_vector_base_v3@internal@tbb@@@1@PAUsegment_t@concurrent_vector_base_v3@01@@Z 1000af60 f i concurrent_vector.obj
 0001:00009fe0       ??0destroy_body@helper@concurrent_vector_base_v3@internal@tbb@@QAE@P6AXPAXI@Z@Z 1000afe0 f i concurrent_vector.obj
 0001:0000a000       ??0helper@concurrent_vector_base_v3@internal@tbb@@QAE@PAUsegment_t@123@IIIII@Z 1000b000 f i concurrent_vector.obj
 0001:0000a060       ??0init_body@helper@concurrent_vector_base_v3@internal@tbb@@QAE@P6AXPAXPBXI@Z1@Z 1000b060 f i concurrent_vector.obj
 0001:0000a090       ??0out_of_range@std@@QAE@ABV01@@Z 1000b090 f i concurrent_vector.obj
 0001:0000a0d0       ??0out_of_range@std@@QAE@PBD@Z 1000b0d0 f i concurrent_vector.obj
 0001:0000a110       ??0range_error@std@@QAE@ABV01@@Z 1000b110 f i concurrent_vector.obj
 0001:0000a150       ??0range_error@std@@QAE@PBD@Z 1000b150 f i concurrent_vector.obj
 0001:0000a190       ??0runtime_error@std@@QAE@ABV01@@Z 1000b190 f i concurrent_vector.obj
 0001:0000a1e0       ??0runtime_error@std@@QAE@PBD@Z 1000b1e0 f i concurrent_vector.obj
 0001:0000a230       ??0safe_init_body@helper@concurrent_vector_base_v3@internal@tbb@@QAE@P6AXPAXPBXI@Z1@Z 1000b230 f i concurrent_vector.obj
 0001:0000a260       ??1helper@concurrent_vector_base_v3@internal@tbb@@QAE@XZ 1000b260 f i concurrent_vector.obj
 0001:0000a4d0       ??1out_of_range@std@@UAE@XZ 1000b4d0 f i concurrent_vector.obj
 0001:0000a500       ??1range_error@std@@UAE@XZ 1000b500 f i concurrent_vector.obj
 0001:0000a530       ??1runtime_error@std@@UAE@XZ 1000b530 f i concurrent_vector.obj
 0001:0000a560       ??1segment_t@concurrent_vector_base_v3@internal@tbb@@QAE@XZ 1000b560 f i concurrent_vector.obj
 0001:0000a5a0       ??4?$atomic@PAUsegment_t@concurrent_vector_base_v3@internal@tbb@@@tbb@@QAEAAU01@ABU01@@Z 1000b5a0 f i concurrent_vector.obj
 0001:0000a5e0       ??4?$atomic@PAUsegment_t@concurrent_vector_base_v3@internal@tbb@@@tbb@@QAEPAUsegment_t@concurrent_vector_base_v3@internal@1@PAU2341@@Z 1000b5e0 f i concurrent_vector.obj
 0001:0000a610       ??B?$atomic_impl@PAUsegment_t@concurrent_vector_base_v3@internal@tbb@@@internal@tbb@@QDEPAUsegment_t@concurrent_vector_base_v3@12@XZ 1000b610 f i concurrent_vector.obj
 0001:0000a680       ??Rdestroy_body@helper@concurrent_vector_base_v3@internal@tbb@@QBEXAAUsegment_t@234@PAXI@Z 1000b680 f i concurrent_vector.obj
 0001:0000a6d0       ??Rinit_body@helper@concurrent_vector_base_v3@internal@tbb@@QBEXAAUsegment_t@234@PAXI@Z 1000b6d0 f i concurrent_vector.obj
 0001:0000a720       ??Rsafe_init_body@helper@concurrent_vector_base_v3@internal@tbb@@QBEXAAUsegment_t@234@PAXI@Z 1000b720 f i concurrent_vector.obj
 0001:0000a790       ??_Eout_of_range@std@@UAEPAXI@Z 1000b790 f i concurrent_vector.obj
 0001:0000a790       ??_Gout_of_range@std@@UAEPAXI@Z 1000b790 f i concurrent_vector.obj
 0001:0000a7d0       ??_Erange_error@std@@UAEPAXI@Z 1000b7d0 f i concurrent_vector.obj
 0001:0000a7d0       ??_Grange_error@std@@UAEPAXI@Z 1000b7d0 f i concurrent_vector.obj
 0001:0000a810       ??_Gruntime_error@std@@UAEPAXI@Z 1000b810 f i concurrent_vector.obj
 0001:0000a810       ??_Eruntime_error@std@@UAEPAXI@Z 1000b810 f i concurrent_vector.obj
 0001:0000a850       ?acquire_segment@helper@concurrent_vector_base_v3@internal@tbb@@SAAAUsegment_t@234@AAV234@II_N@Z 1000b850 f i concurrent_vector.obj
 0001:0000a950       ?allocate_segment@helper@concurrent_vector_base_v3@internal@tbb@@SAPAXAAV234@I@Z 1000b950 f i concurrent_vector.obj
 0001:0000a9c0       ?assign_first_segment_if_neccessary@helper@concurrent_vector_base_v3@internal@tbb@@SAXAAV234@I@Z 1000b9c0 f i concurrent_vector.obj
 0001:0000a9f0       ?compare_and_swap@?$atomic_impl@PAUsegment_t@concurrent_vector_base_v3@internal@tbb@@@internal@tbb@@QAEPAUsegment_t@concurrent_vector_base_v3@23@PAU4523@0@Z 1000b9f0 f i concurrent_vector.obj
 0001:0000aa20       ?enable_segment@helper@concurrent_vector_base_v3@internal@tbb@@SAIAAV234@II@Z 1000ba20 f i concurrent_vector.obj
 0001:0000ad00       ?extend_segment_table@helper@concurrent_vector_base_v3@internal@tbb@@SAXAAV234@I@Z 1000bd00 f i concurrent_vector.obj
 0001:0000aef0       ?extend_table_if_necessary@helper@concurrent_vector_base_v3@internal@tbb@@SAXAAV234@II@Z 1000bef0 f i concurrent_vector.obj
 0001:0000af30       ?find_segment_end@helper@concurrent_vector_base_v3@internal@tbb@@SAIABV234@@Z 1000bf30 f i concurrent_vector.obj
 0001:0000afb0       ?first_segment@helper@concurrent_vector_base_v3@internal@tbb@@QAEXXZ 1000bfb0 f i concurrent_vector.obj
 0001:0000b0d0       ?get_segment_ptr@helper@concurrent_vector_base_v3@internal@tbb@@QAEPAXI_N@Z 1000c0d0 f i concurrent_vector.obj
 0001:0000b180       ?incompact_predicate@helper@concurrent_vector_base_v3@internal@tbb@@SA_NI@Z 1000c180 f i concurrent_vector.obj
 0001:0000b1d0       ?load_with_acquire@?$__TBB_machine_load_store@PAX$03@@SAPAXADSAX@Z 1000c1d0 f i concurrent_vector.obj
 0001:0000b1f0       ?next_segment@helper@concurrent_vector_base_v3@internal@tbb@@QAEXXZ 1000c1f0 f i concurrent_vector.obj
 0001:0000b260       ?publish_segment@helper@concurrent_vector_base_v3@internal@tbb@@SAXAAUsegment_t@234@PAX@Z 1000c260 f i concurrent_vector.obj
 0001:0000b2a0       ?segment_base@concurrent_vector_base_v3@internal@tbb@@KAII@Z 1000c2a0 f i concurrent_vector.obj
 0001:0000b2c0       ?segment_index_of@concurrent_vector_base_v3@internal@tbb@@KAII@Z 1000c2c0 f i concurrent_vector.obj
 0001:0000b2e0       ?segment_size@concurrent_vector_base_v3@internal@tbb@@KAII@Z 1000c2e0 f i concurrent_vector.obj
 0001:0000b2f0       ?store_with_release@?$__TBB_machine_load_store@PAX$03@@SAXACRAXPAX@Z 1000c2f0 f i concurrent_vector.obj
 0001:0000b300       ?store_with_release@?$atomic_impl@PAUsegment_t@concurrent_vector_base_v3@internal@tbb@@@internal@tbb@@IAEPAUsegment_t@concurrent_vector_base_v3@23@PAU4523@@Z 1000c300 f i concurrent_vector.obj
 0001:0000b370       ?dynamic_link@internal@tbb@@YA_NPBDQBUdynamic_link_descriptor@12@IIPAPAUHINSTANCE__@@@Z 1000c370 f   dynamic_link.obj
 0001:0000b480       ?dynamic_unlink@internal@tbb@@YAXPAUHINSTANCE__@@@Z 1000c480 f   dynamic_link.obj
 0001:0000b4b0       ?dynamic_link@internal@tbb@@YA_NPAXQBUdynamic_link_descriptor@12@II@Z 1000c4b0 f   dynamic_link.obj
 0001:0000b640       ?itt_set_sync_name_v3@internal@tbb@@YAXPAXPB_W@Z 1000c640 f   itt_notify.obj
 0001:0000b680       ?InitializeITT@internal@tbb@@YA_NXZ 1000c680 f   itt_notify.obj
 0001:0000b6c0       ?itt_store_pointer_with_release_v3@internal@tbb@@YAXPAX0@Z 1000c6c0 f   itt_notify.obj
 0001:0000b700       ?itt_load_pointer_with_acquire_v3@internal@tbb@@YAPAXPBX@Z 1000c700 f   itt_notify.obj
 0001:0000b750       ?itt_load_pointer_v3@internal@tbb@@YAPAXPBX@Z 1000c750 f   itt_notify.obj
 0001:0000b770       ___TBB_load_ittnotify      1000c770 f   itt_notify_proxy.obj
 0001:0000b790       ___itt_set_error_handler   1000c790 f   itt_notify_proxy.obj
 0001:0000cc00       ?internal_acquire@scoped_lock@mutex@tbb@@AAEXAAV23@@Z 1000dc00 f   mutex.obj
 0001:0000cce0       ?internal_try_acquire@scoped_lock@mutex@tbb@@AAE_NAAV23@@Z 1000dce0 f   mutex.obj
 0001:0000cdf0       ?internal_release@scoped_lock@mutex@tbb@@AAEXXZ 1000ddf0 f   mutex.obj
 0001:0000cef0       ?internal_construct@mutex@tbb@@AAEXXZ 1000def0 f   mutex.obj
 0001:0000cf60       ?internal_destroy@mutex@tbb@@AAEXXZ 1000df60 f   mutex.obj
 0001:0000d050       ??1filter@tbb@@UAE@XZ      1000e050 f   pipeline.obj
 0001:0000d130       ?try_process_item@thread_bound_filter@tbb@@QAE?AW4result_type@12@XZ 1000e130 f   pipeline.obj
 0001:0000d160       ?process_item@thread_bound_filter@tbb@@QAE?AW4result_type@12@XZ 1000e160 f   pipeline.obj
 0001:0000d190       ?internal_process_item@thread_bound_filter@tbb@@AAE?AW4result_type@12@_N@Z 1000e190 f   pipeline.obj
 0001:0000d390       ??0pipeline@tbb@@QAE@XZ    1000e390 f   pipeline.obj
 0001:0000d400       ??1pipeline@tbb@@UAE@XZ    1000e400 f   pipeline.obj
 0001:0000d430       ?add_filter@pipeline@tbb@@QAEXAAVfilter@2@@Z 1000e430 f   pipeline.obj
 0001:0000d700       ?run@pipeline@tbb@@QAEXI@Z 1000e700 f   pipeline.obj
 0001:0000d7e0       ?run@pipeline@tbb@@QAEXIAAVtask_group_context@2@@Z 1000e7e0 f   pipeline.obj
 0001:0000d980       ?clear@pipeline@tbb@@QAEXXZ 1000e980 f   pipeline.obj
 0001:0000da80       ?remove_filter@pipeline@tbb@@AAEXAAVfilter@2@@Z 1000ea80 f   pipeline.obj
 0001:0000dbd0       ?inject_token@pipeline@tbb@@AAEXAAVtask@2@@Z 1000ebd0 f   pipeline.obj
 0001:0000dc10       ?clear_filters@pipeline@tbb@@AAEXXZ 1000ec10 f   pipeline.obj
 0001:0000dc90       ?grow@input_buffer@internal@tbb@@AAEXK@Z 1000ec90 f   pipeline.obj
 0001:0000ddd0       ?execute@stage_task@internal@tbb@@UAEPAVtask@3@XZ 1000edd0 f   pipeline.obj
 0001:0000e350       ??$fetch_and_add@$0A@@?$atomic_impl_with_arithmetic@KKD@internal@tbb@@QAEKK@Z 1000f350 f i pipeline.obj
 0001:0000e380       ??$note_done@Vstage_task@internal@tbb@@@input_buffer@internal@tbb@@QAEXKAAVstage_task@12@@Z 1000f380 f i pipeline.obj
 0001:0000e4e0       ??$poison_pointer@Utask_info@internal@tbb@@@internal@tbb@@YAXAAPAUtask_info@01@@Z 1000f4e0 f i pipeline.obj
 0001:0000e4f0       ??$put_token@Vstage_task@internal@tbb@@@input_buffer@internal@tbb@@QAE_NAAVstage_task@12@@Z 1000f4f0 f i pipeline.obj
 0001:0000e6c0       ??0?$cache_aligned_allocator@Utask_info@internal@tbb@@@tbb@@QAE@XZ 1000f6c0 f i pipeline.obj
 0001:0000e6e0       ??0allocate_additional_child_of_proxy@internal@tbb@@QAE@AAVtask@2@0@Z 1000f6e0 f i pipeline.obj
 0001:0000e710       ??0allocate_root_with_context_proxy@internal@tbb@@QAE@AAVtask_group_context@2@@Z 1000f710 f i pipeline.obj
 0001:0000e730       ??0input_buffer@internal@tbb@@QAE@_N0@Z 1000f730 f i pipeline.obj
 0001:0000e7c0       ??0pipeline_cleaner@internal@tbb@@QAE@AAVpipeline@2@@Z 1000f7c0 f i pipeline.obj
 0001:0000e800       ??0pipeline_root_task@internal@tbb@@QAE@AAVpipeline@2@@Z 1000f800 f i pipeline.obj
 0001:0000e930       ??0spin_mutex@tbb@@QAE@XZ  1000f930 f i pipeline.obj
 0001:0000e960       ??0stage_task@internal@tbb@@QAE@AAVpipeline@2@@Z 1000f960 f i pipeline.obj
 0001:0000ea00       ??0stage_task@internal@tbb@@QAE@AAVpipeline@2@PAVfilter@2@ABUtask_info@12@@Z 1000fa00 f i pipeline.obj
 0001:0000ea70       ??0task@tbb@@IAE@XZ        1000fa70 f i pipeline.obj
 0001:0000eac0       ??0task_group_context@tbb@@QAE@W4kind_type@01@I@Z 1000fac0 f i pipeline.obj
 0001:0000eb10       ??1input_buffer@internal@tbb@@QAE@XZ 1000fb10 f i pipeline.obj
 0001:0000eb80       ??1pipeline_cleaner@internal@tbb@@QAE@XZ 1000fb80 f i pipeline.obj
 0001:0000ebd0       ??1pipeline_root_task@internal@tbb@@UAE@XZ 1000fbd0 f i pipeline.obj
 0001:0000ec00       ??1stage_task@internal@tbb@@UAE@XZ 1000fc00 f i pipeline.obj
 0001:0000ecf0       ??1task@tbb@@UAE@XZ        1000fcf0 f i pipeline.obj
 0001:0000ed10       ??2@YAPAXIABVallocate_additional_child_of_proxy@internal@tbb@@@Z 1000fd10 f i pipeline.obj
 0001:0000ed30       ??2@YAPAXIABVallocate_child_proxy@internal@tbb@@@Z 1000fd30 f i pipeline.obj
 0001:0000ed50       ??2@YAPAXIABVallocate_root_with_context_proxy@internal@tbb@@@Z 1000fd50 f i pipeline.obj
 0001:0000ed70       ??3@YAXPAXABVallocate_additional_child_of_proxy@internal@tbb@@@Z 1000fd70 f i pipeline.obj
 0001:0000ed90       ??3@YAXPAXABVallocate_child_proxy@internal@tbb@@@Z 1000fd90 f i pipeline.obj
 0001:0000edb0       ??3@YAXPAXABVallocate_root_with_context_proxy@internal@tbb@@@Z 1000fdb0 f i pipeline.obj
 0001:0000edd0       ??4?$atomic@K@tbb@@QAEKK@Z 1000fdd0 f i pipeline.obj
 0001:0000ee00       ??B?$atomic_impl@K@internal@tbb@@QDEKXZ 1000fe00 f i pipeline.obj
 0001:0000ee70       ??E?$atomic_impl_with_arithmetic@KKD@internal@tbb@@QAEKH@Z 1000fe70 f i pipeline.obj
 0001:0000eea0       ??E?$atomic_impl_with_arithmetic@KKD@internal@tbb@@QAEKXZ 1000fea0 f i pipeline.obj
 0001:0000eed0       ??F?$atomic_impl_with_arithmetic@KKD@internal@tbb@@QAEKH@Z 1000fed0 f i pipeline.obj
 0001:0000ef00       ??F?$atomic_impl_with_arithmetic@KKD@internal@tbb@@QAEKXZ 1000ff00 f i pipeline.obj
 0001:0000ef30       ??_Gfilter@tbb@@UAEPAXI@Z  1000ff30 f i pipeline.obj
 0001:0000ef30       ??_Efilter@tbb@@UAEPAXI@Z  1000ff30 f i pipeline.obj
 0001:0000ef70       ??_Ginput_buffer@internal@tbb@@QAEPAXI@Z 1000ff70 f i pipeline.obj
 0001:0000efb0       ??_Epipeline@tbb@@UAEPAXI@Z 1000ffb0 f i pipeline.obj
 0001:0000efb0       ??_Gpipeline@tbb@@UAEPAXI@Z 1000ffb0 f i pipeline.obj
 0001:0000eff0       ??_Epipeline_root_task@internal@tbb@@UAEPAXI@Z 1000fff0 f i pipeline.obj
 0001:0000eff0       ??_Gpipeline_root_task@internal@tbb@@UAEPAXI@Z 1000fff0 f i pipeline.obj
 0001:0000f030       ??_Estage_task@internal@tbb@@UAEPAXI@Z 10010030 f i pipeline.obj
 0001:0000f030       ??_Gstage_task@internal@tbb@@UAEPAXI@Z 10010030 f i pipeline.obj
 0001:0000f070       ??_Gtask@tbb@@UAEPAXI@Z    10010070 f i pipeline.obj
 0001:0000f070       ??_Etask@tbb@@UAEPAXI@Z    10010070 f i pipeline.obj
 0001:0000f0b0       ?add_to_depth@task@tbb@@QAEXH@Z 100100b0 f i pipeline.obj
 0001:0000f0d0       ?allocate@?$cache_aligned_allocator@Utask_info@internal@tbb@@@tbb@@QAEPAUtask_info@internal@2@IPBX@Z 100100d0 f i pipeline.obj
 0001:0000f100       ?allocate_additional_child_of@task@tbb@@QAE?AVallocate_additional_child_of_proxy@internal@2@AAV12@@Z 10010100 f i pipeline.obj
 0001:0000f140       ?allocate_child@task@tbb@@QAEAAVallocate_child_proxy@internal@2@XZ 10010140 f i pipeline.obj
 0001:0000f160       ?allocate_root@task@tbb@@SA?AVallocate_root_with_context_proxy@internal@2@AAVtask_group_context@2@@Z 10010160 f i pipeline.obj
 0001:0000f180       ?clear@input_buffer@internal@tbb@@QAEXPAVfilter@3@@Z 10010180 f i pipeline.obj
 0001:0000f230       ?deallocate@?$cache_aligned_allocator@Utask_info@internal@tbb@@@tbb@@QAEXPAUtask_info@internal@2@I@Z 10010230 f i pipeline.obj
 0001:0000f260       ?execute@pipeline_root_task@internal@tbb@@EAEPAVtask@3@XZ 10010260 f i pipeline.obj
 0001:0000f570       ?fetch_and_add@?$atomic_impl_with_arithmetic@KKD@internal@tbb@@QAEKK@Z 10010570 f i pipeline.obj
 0001:0000f5a0       ?finalize@filter@tbb@@UAEXPAX@Z 100105a0 f i pipeline.obj
 0001:0000f5c0       ?is_bound@filter@tbb@@QBE_NXZ 100105c0 f i pipeline.obj
 0001:0000f600       ?is_cancelled@task@tbb@@QBE_NXZ 10010600 f i pipeline.obj
 0001:0000f630       ?is_ordered@filter@tbb@@QBE_NXZ 10010630 f i pipeline.obj
 0001:0000f670       ?is_serial@filter@tbb@@QBE_NXZ 10010670 f i pipeline.obj
 0001:0000f690       ?not_in_pipeline@filter@tbb@@CAPAV12@XZ 10010690 f i pipeline.obj
 0001:0000f6a0       ?parent@task@tbb@@QBEPAV12@XZ 100106a0 f i pipeline.obj
 0001:0000f6d0       ?prefix@task@tbb@@ABEAAVtask_prefix@internal@2@PAUversion_tag_v3@42@@Z 100106d0 f i pipeline.obj
 0001:0000f6f0       ?put_item@input_buffer@internal@tbb@@QAEXAAUtask_info@23@@Z 100106f0 f i pipeline.obj
 0001:0000f8a0       ?put_task_info@stage_task@internal@tbb@@QAEXAAUtask_info@23@@Z 100108a0 f i pipeline.obj
 0001:0000f8e0       ?recycle_as_continuation@task@tbb@@QAEXXZ 100108e0 f i pipeline.obj
 0001:0000f940       ?reset@stage_task@internal@tbb@@QAEXXZ 10010940 f i pipeline.obj
 0001:0000f980       ?reset@task_info@internal@tbb@@QAEXXZ 10010980 f i pipeline.obj
 0001:0000f9c0       ?return_item@input_buffer@internal@tbb@@QAE_NAAUtask_info@23@_N@Z 100109c0 f i pipeline.obj
 0001:0000fb10       ?set_ref_count@task@tbb@@QAEXH@Z 10010b10 f i pipeline.obj
 0001:0000fb40       ?spawn@task@tbb@@QAEXAAV12@@Z 10010b40 f i pipeline.obj
 0001:0000fba0       ?spawn_root_and_wait@task@tbb@@SAXAAV12@@Z 10010ba0 f i pipeline.obj
 0001:0000fc00       ?spawn_stage_task@stage_task@internal@tbb@@QAEXABUtask_info@23@@Z 10010c00 f i pipeline.obj
 0001:0000fce0       ?store_with_release@?$atomic_impl@K@internal@tbb@@IAEKK@Z 10010ce0 f i pipeline.obj
 0001:0000fdd0       ?run@private_worker@rml@internal@tbb@@AAEXXZ 10010dd0 f   private_server.obj
 0001:0000ff60       ?start_shutdown@private_worker@rml@internal@tbb@@AAEXXZ 10010f60 f   private_server.obj
 0001:00010000       ?thread_routine@private_worker@rml@internal@tbb@@CGIPAX@Z 10011000 f   private_server.obj
 0001:00010100       ?wake_some@private_server@rml@internal@tbb@@AAEXH@Z 10011100 f   private_server.obj
 0001:000102c0       ??1private_server@rml@internal@tbb@@EAE@XZ 100112c0 f   private_server.obj
 0001:00010380       ??0private_server@rml@internal@tbb@@QAE@AAVtbb_client@123@@Z 10011380 f   private_server.obj
 0001:00010560       ?adjust_job_count_estimate@private_server@rml@internal@tbb@@UAEXH@Z 10011560 f   private_server.obj
 0001:000105c0       ?make_private_server@rml@internal@tbb@@YAPAVtbb_server@123@AAVtbb_client@123@@Z 100115c0 f   private_server.obj
 0001:00010670       ??$compare_and_swap@$0A@@?$atomic_impl@H@internal@tbb@@QAEHHH@Z 10011670 f i private_server.obj
 0001:00010710       ??$compare_and_swap@$0A@@?$atomic_impl@W4state_t@private_worker@rml@internal@tbb@@@internal@tbb@@QAE?AW4state_t@private_worker@rml@12@W434512@0@Z 10011710 f i private_server.obj
 0001:000107b0       ??$fetch_and_add@$0A@@?$atomic_impl_with_arithmetic@HHD@internal@tbb@@QAEHH@Z 100117b0 f i private_server.obj
 0001:000107e0       ??$poison_pointer@Vpadded_private_worker@rml@internal@tbb@@@internal@tbb@@YAXAAPAVpadded_private_worker@rml@01@@Z 100117e0 f i private_server.obj
 0001:000107f0       ??0?$cache_aligned_allocator@Vpadded_private_worker@rml@internal@tbb@@@tbb@@QAE@XZ 100117f0 f i private_server.obj
 0001:00010810       ??0?$cache_aligned_allocator@Vprivate_server@rml@internal@tbb@@@tbb@@QAE@XZ 10011810 f i private_server.obj
 0001:00010830       ??0padded_private_worker@rml@internal@tbb@@QAE@AAVprivate_server@123@AAVtbb_client@123@I@Z 10011830 f i private_server.obj
 0001:00010870       ??0private_worker@rml@internal@tbb@@IAE@AAVprivate_server@123@AAVtbb_client@123@I@Z 10011870 f i private_server.obj
 0001:00010910       ??0server@rml@@QAE@XZ      10011910 f i private_server.obj
 0001:00010940       ??0tbb_server@rml@internal@tbb@@QAE@XZ 10011940 f i private_server.obj
 0001:00010970       ??0thread_monitor@internal@rml@@QAE@XZ 10011970 f i private_server.obj
 0001:000109e0       ??0versioned_object@rml@@QAE@XZ 100119e0 f i private_server.obj
 0001:00010a00       ??1padded_private_worker@rml@internal@tbb@@QAE@XZ 10011a00 f i private_server.obj
 0001:00010a30       ??1private_worker@rml@internal@tbb@@QAE@XZ 10011a30 f i private_server.obj
 0001:00010a60       ??1thread_monitor@internal@rml@@QAE@XZ 10011a60 f i private_server.obj
 0001:00010ab0       ??4?$atomic@H@tbb@@QAEHH@Z 10011ab0 f i private_server.obj
 0001:00010ae0       ??4?$atomic@PAVprivate_worker@rml@internal@tbb@@@tbb@@QAEPAVprivate_worker@rml@internal@1@PAV2341@@Z 10011ae0 f i private_server.obj
 0001:00010b10       ??4?$atomic@W4state_t@private_worker@rml@internal@tbb@@@tbb@@QAE?AW4state_t@private_worker@rml@internal@1@W423451@@Z 10011b10 f i private_server.obj
 0001:00010b40       ??B?$atomic_impl@H@internal@tbb@@QDEHXZ 10011b40 f i private_server.obj
 0001:00010bb0       ??B?$atomic_impl@PAVprivate_worker@rml@internal@tbb@@@internal@tbb@@QDEPAVprivate_worker@rml@12@XZ 10011bb0 f i private_server.obj
 0001:00010c20       ??B?$atomic_impl@W4state_t@private_worker@rml@internal@tbb@@@internal@tbb@@QDE?AW4state_t@private_worker@rml@12@XZ 10011c20 f i private_server.obj
 0001:00010c90       ??E?$atomic_impl_with_arithmetic@HHD@internal@tbb@@QAEHXZ 10011c90 f i private_server.obj
 0001:00010cc0       ??F?$atomic_impl_with_arithmetic@HHD@internal@tbb@@QAEHXZ 10011cc0 f i private_server.obj
 0001:00010cf0       ??Y?$atomic_impl_with_arithmetic@HHD@internal@tbb@@QAEHH@Z 10011cf0 f i private_server.obj
 0001:00010d20       ??_Gpadded_private_worker@rml@internal@tbb@@QAEPAXI@Z 10011d20 f i private_server.obj
 0001:00010d60       ??_Gprivate_server@rml@internal@tbb@@EAEPAXI@Z 10011d60 f i private_server.obj
 0001:00010d60       ??_Eprivate_server@rml@internal@tbb@@EAEPAXI@Z 10011d60 f i private_server.obj
 0001:00010da0       ?allocate@?$cache_aligned_allocator@Vpadded_private_worker@rml@internal@tbb@@@tbb@@QAEPAVpadded_private_worker@rml@internal@2@IPBX@Z 10011da0 f i private_server.obj
 0001:00010de0       ?allocate@?$cache_aligned_allocator@Vprivate_server@rml@internal@tbb@@@tbb@@QAEPAVprivate_server@rml@internal@2@IPBX@Z 10011de0 f i private_server.obj
 0001:00010e10       ?cancel_wait@thread_monitor@internal@rml@@QAEXXZ 10011e10 f i private_server.obj
 0001:00010e50       ?commit_wait@thread_monitor@internal@rml@@QAEXAAVcookie@123@@Z 10011e50 f i private_server.obj
 0001:00010f10       ?compare_and_swap@?$atomic_impl@H@internal@tbb@@QAEHHH@Z 10011f10 f i private_server.obj
 0001:00010f40       ?compare_and_swap@?$atomic_impl@W4state_t@private_worker@rml@internal@tbb@@@internal@tbb@@QAE?AW4state_t@private_worker@rml@23@W445623@0@Z 10011f40 f i private_server.obj
 0001:00010f70       ?deallocate@?$cache_aligned_allocator@Vpadded_private_worker@rml@internal@tbb@@@tbb@@QAEXPAVpadded_private_worker@rml@internal@2@I@Z 10011f70 f i private_server.obj
 0001:00010fa0       ?deallocate@?$cache_aligned_allocator@Vprivate_server@rml@internal@tbb@@@tbb@@QAEXPAVprivate_server@rml@internal@2@I@Z 10011fa0 f i private_server.obj
 0001:00010fd0       ?default_concurrency@private_server@rml@internal@tbb@@UBEIXZ 10011fd0 f i private_server.obj
 0001:00011000       ?fetch_and_add@?$atomic_impl_with_arithmetic@HHD@internal@tbb@@QAEHH@Z 10012000 f i private_server.obj
 0001:00011030       ?has_sleepers@private_server@rml@internal@tbb@@ABE_NXZ 10012030 f i private_server.obj
 0001:00011080       ?independent_thread_number_changed@private_server@rml@internal@tbb@@UAEXH@Z 10012080 f i private_server.obj
 0001:000110c0       ?launch@thread_monitor@internal@rml@@SAXP6GIPAX@Z0I@Z 100120c0 f i private_server.obj
 0001:000111b0       ?notify@thread_monitor@internal@rml@@QAEXXZ 100121b0 f i private_server.obj
 0001:00011230       ?prepare_wait@thread_monitor@internal@rml@@QAEXAAVcookie@123@@Z 10012230 f i private_server.obj
 0001:00011280       ?remove_server_ref@private_server@rml@internal@tbb@@AAEXXZ 10012280 f i private_server.obj
 0001:00011300       ?request_close_connection@private_server@rml@internal@tbb@@UAEXXZ 10012300 f i private_server.obj
 0001:00011360       ?store_with_release@?$atomic_impl@H@internal@tbb@@IAEHH@Z 10012360 f i private_server.obj
 0001:000113d0       ?store_with_release@?$atomic_impl@PAVprivate_worker@rml@internal@tbb@@@internal@tbb@@IAEPAVprivate_worker@rml@23@PAV4523@@Z 100123d0 f i private_server.obj
 0001:00011440       ?store_with_release@?$atomic_impl@W4state_t@private_worker@rml@internal@tbb@@@internal@tbb@@IAE?AW4state_t@private_worker@rml@23@W445623@@Z 10012440 f i private_server.obj
 0001:000114b0       ?try_insert_in_asleep_list@private_server@rml@internal@tbb@@AAE_NAAVprivate_worker@234@@Z 100124b0 f i private_server.obj
 0001:000115d0       ?version@private_server@rml@internal@tbb@@UBEIXZ 100125d0 f i private_server.obj
 0001:000115f0       ?yield@private_server@rml@internal@tbb@@UAEXXZ 100125f0 f i private_server.obj
 0001:000116c0       ?acquire@scoped_lock@queuing_mutex@tbb@@QAEXAAV23@@Z 100126c0 f   queuing_mutex.obj
 0001:000117d0       ?try_acquire@scoped_lock@queuing_mutex@tbb@@QAE_NAAV23@@Z 100127d0 f   queuing_mutex.obj
 0001:000118a0       ?release@scoped_lock@queuing_mutex@tbb@@QAEXXZ 100128a0 f   queuing_mutex.obj
 0001:00011980       ?internal_construct@queuing_mutex@tbb@@QAEXXZ 10012980 f   queuing_mutex.obj
 0001:000119d0       ??$__TBB_machine_load_with_acquire@I@@YAIADI@Z 100129d0 f i queuing_mutex.obj
 0001:000119f0       ??$__TBB_machine_store_with_release@IH@@YAXAAIH@Z 100129f0 f i queuing_mutex.obj
 0001:00011a10       ??$compare_and_swap@$01@?$atomic_impl@PAVscoped_lock@queuing_mutex@tbb@@@internal@tbb@@QAEPAVscoped_lock@queuing_mutex@2@PAV342@0@Z 10012a10 f i queuing_mutex.obj
 0001:00011ab0       ??$fetch_and_store@$01@?$atomic_impl@PAVscoped_lock@queuing_mutex@tbb@@@internal@tbb@@QAEPAVscoped_lock@queuing_mutex@2@PAV342@@Z 10012ab0 f i queuing_mutex.obj
 0001:00011b40       ??$poison_pointer@Vscoped_lock@queuing_mutex@tbb@@@internal@tbb@@YAXAAPAVscoped_lock@queuing_mutex@1@@Z 10012b40 f i queuing_mutex.obj
 0001:00011b50       ??$spin_wait_while_eq@IK@internal@tbb@@YAXADIK@Z 10012b50 f i queuing_mutex.obj
 0001:00011bd0       ??$spin_wait_while_eq@PAVscoped_lock@queuing_mutex@tbb@@PAV123@@internal@tbb@@YAXADSAVscoped_lock@queuing_mutex@1@PAV231@@Z 10012bd0 f i queuing_mutex.obj
 0001:00011c50       ??B?$atomic_impl@PAVscoped_lock@queuing_mutex@tbb@@@internal@tbb@@QDEPAVscoped_lock@queuing_mutex@2@XZ 10012c50 f i queuing_mutex.obj
 0001:00011cc0       ?compare_and_swap@?$atomic_traits@$03$01@internal@tbb@@SAHPCXHH@Z 10012cc0 f i queuing_mutex.obj
 0001:00011ce0       ?fetch_and_store@?$atomic_traits@$03$01@internal@tbb@@SAHPCXH@Z 10012ce0 f i queuing_mutex.obj
 0001:00011d00       ?initialize@scoped_lock@queuing_mutex@tbb@@AAEXXZ 10012d00 f i queuing_mutex.obj
 0001:00011d40       ?load_with_acquire@?$__TBB_machine_load_store@I$03@@SAIADI@Z 10012d40 f i queuing_mutex.obj
 0001:00011d60       ?store_with_release@?$__TBB_machine_load_store@I$03@@SAXACII@Z 10012d60 f i queuing_mutex.obj
 0001:00011e90       ?acquire@scoped_lock@queuing_rw_mutex@tbb@@QAEXAAV23@_N@Z 10012e90 f   queuing_rw_mutex.obj
 0001:00012280       ?try_acquire@scoped_lock@queuing_rw_mutex@tbb@@QAE_NAAV23@_N@Z 10013280 f   queuing_rw_mutex.obj
 0001:00012390       ?release@scoped_lock@queuing_rw_mutex@tbb@@QAEXXZ 10013390 f   queuing_rw_mutex.obj
 0001:00012830       ?upgrade_to_writer@scoped_lock@queuing_rw_mutex@tbb@@QAE_NXZ 10013830 f   queuing_rw_mutex.obj
 0001:00012df0       ?downgrade_to_reader@scoped_lock@queuing_rw_mutex@tbb@@QAE_NXZ 10013df0 f   queuing_rw_mutex.obj
 0001:00012f60       ?internal_construct@queuing_rw_mutex@tbb@@QAEXXZ 10013f60 f   queuing_rw_mutex.obj
 0001:00012fb0       ??$__TBB_machine_load_with_acquire@D@@YADADD@Z 10013fb0 f i queuing_rw_mutex.obj
 0001:00012fd0       ??$__TBB_machine_load_with_acquire@E@@YAEADE@Z 10013fd0 f i queuing_rw_mutex.obj
 0001:00012ff0       ??$__TBB_machine_load_with_acquire@PAVscoped_lock@queuing_rw_mutex@tbb@@@@YAPAVscoped_lock@queuing_rw_mutex@tbb@@ADSAV012@@Z 10013ff0 f i queuing_rw_mutex.obj
 0001:00013010       ??$__TBB_machine_store_with_release@DD@@YAXAADD@Z 10014010 f i queuing_rw_mutex.obj
 0001:00013030       ??$__TBB_machine_store_with_release@EE@@YAXAAEE@Z 10014030 f i queuing_rw_mutex.obj
 0001:00013050       ??$__TBB_machine_store_with_release@EH@@YAXAAEH@Z 10014050 f i queuing_rw_mutex.obj
 0001:00013070       ??$__TBB_machine_store_with_release@PAVscoped_lock@queuing_rw_mutex@tbb@@PAV123@@@YAXAAPAVscoped_lock@queuing_rw_mutex@tbb@@PAV012@@Z 10014070 f i queuing_rw_mutex.obj
 0001:00013090       ??$as_atomic@E@tbb@@YAAAU?$atomic@E@0@AAE@Z 10014090 f i queuing_rw_mutex.obj
 0001:000130a0       ??$compare_and_swap@$00@?$atomic_impl@E@internal@tbb@@QAEEEE@Z 100140a0 f i queuing_rw_mutex.obj
 0001:00013140       ??$compare_and_swap@$01@?$atomic_impl@E@internal@tbb@@QAEEEE@Z 10014140 f i queuing_rw_mutex.obj
 0001:000131e0       ??$compare_and_swap@$01@?$atomic_impl@PAVscoped_lock@queuing_rw_mutex@tbb@@@internal@tbb@@QAEPAVscoped_lock@queuing_rw_mutex@2@PAV342@0@Z 100141e0 f i queuing_rw_mutex.obj
 0001:00013280       ??$compare_and_swap@$01@?$tricky_atomic_pointer@Vscoped_lock@queuing_rw_mutex@tbb@@@tbb@@SAPAVscoped_lock@queuing_rw_mutex@1@PCRAV231@PAV231@1@Z 10014280 f i queuing_rw_mutex.obj
 0001:000132a0       ??$fetch_and_add@$00@?$tricky_atomic_pointer@Vscoped_lock@queuing_rw_mutex@tbb@@@tbb@@SAPAVscoped_lock@queuing_rw_mutex@1@PCRAV231@H@Z 100142a0 f i queuing_rw_mutex.obj
 0001:000132c0       ??$fetch_and_store@$01@?$atomic_impl@PAVscoped_lock@queuing_rw_mutex@tbb@@@internal@tbb@@QAEPAVscoped_lock@queuing_rw_mutex@2@PAV342@@Z 100142c0 f i queuing_rw_mutex.obj
 0001:00013350       ??$fetch_and_store@$01@?$tricky_atomic_pointer@Vscoped_lock@queuing_rw_mutex@tbb@@@tbb@@SAPAVscoped_lock@queuing_rw_mutex@1@PCRAV231@PAV231@@Z 10014350 f i queuing_rw_mutex.obj
 0001:00013370       ??$poison_pointer@Vscoped_lock@queuing_rw_mutex@tbb@@@internal@tbb@@YAXAAPAVscoped_lock@queuing_rw_mutex@1@@Z 10014370 f i queuing_rw_mutex.obj
 0001:00013380       ??$spin_wait_until_eq@EE@internal@tbb@@YAXADEE@Z 10014380 f i queuing_rw_mutex.obj
 0001:00013400       ??$spin_wait_until_eq@EH@internal@tbb@@YAXADEH@Z 10014400 f i queuing_rw_mutex.obj
 0001:00013480       ??$spin_wait_while_eq@EH@internal@tbb@@YAXADEH@Z 10014480 f i queuing_rw_mutex.obj
 0001:00013500       ??$spin_wait_while_eq@PAVscoped_lock@queuing_rw_mutex@tbb@@PAV123@@internal@tbb@@YAXADSAVscoped_lock@queuing_rw_mutex@1@PAV231@@Z 10014500 f i queuing_rw_mutex.obj
 0001:00013580       ??$spin_wait_while_eq@PAVscoped_lock@queuing_rw_mutex@tbb@@PAX@internal@tbb@@YAXADSAVscoped_lock@queuing_rw_mutex@1@PAX@Z 10014580 f i queuing_rw_mutex.obj
 0001:00013600       ??0?$tricky_atomic_pointer@Vscoped_lock@queuing_rw_mutex@tbb@@@tbb@@QAE@AAPAVscoped_lock@queuing_rw_mutex@1@@Z 10014600 f i queuing_rw_mutex.obj
 0001:00013640       ??4?$atomic@E@tbb@@QAEEE@Z 10014640 f i queuing_rw_mutex.obj
 0001:00013670       ??B?$atomic_impl@E@internal@tbb@@QDEEXZ 10014670 f i queuing_rw_mutex.obj
 0001:000136e0       ??B?$atomic_impl@PAVscoped_lock@queuing_rw_mutex@tbb@@@internal@tbb@@QDEPAVscoped_lock@queuing_rw_mutex@2@XZ 100146e0 f i queuing_rw_mutex.obj
 0001:00013750       ??I?$tricky_atomic_pointer@Vscoped_lock@queuing_rw_mutex@tbb@@@tbb@@QBEPAVscoped_lock@queuing_rw_mutex@1@H@Z 10014750 f i queuing_rw_mutex.obj
 0001:00013770       ??U?$tricky_atomic_pointer@Vscoped_lock@queuing_rw_mutex@tbb@@@tbb@@QBEPAVscoped_lock@queuing_rw_mutex@1@H@Z 10014770 f i queuing_rw_mutex.obj
 0001:00013790       ?acquire_internal_lock@scoped_lock@queuing_rw_mutex@tbb@@AAEXXZ 10014790 f i queuing_rw_mutex.obj
 0001:000137d0       ?compare_and_swap@?$atomic_traits@$00$00@internal@tbb@@SADPCXDD@Z 100147d0 f i queuing_rw_mutex.obj
 0001:00013800       ?compare_and_swap@?$atomic_traits@$00$01@internal@tbb@@SADPCXDD@Z 10014800 f i queuing_rw_mutex.obj
 0001:00013830       ?fetch_and_add@?$atomic_traits@$03$00@internal@tbb@@SAHPCXH@Z 10014830 f i queuing_rw_mutex.obj
 0001:00013850       ?get_flag@tbb@@YAIPAVscoped_lock@queuing_rw_mutex@1@@Z 10014850 f i queuing_rw_mutex.obj
 0001:00013880       ?initialize@scoped_lock@queuing_rw_mutex@tbb@@AAEXXZ 10014880 f i queuing_rw_mutex.obj
 0001:000138e0       ?load_with_acquire@?$__TBB_machine_load_store@D$00@@SADADD@Z 100148e0 f i queuing_rw_mutex.obj
 0001:00013900       ?load_with_acquire@?$__TBB_machine_load_store@E$00@@SAEADE@Z 10014900 f i queuing_rw_mutex.obj
 0001:00013920       ?load_with_acquire@?$__TBB_machine_load_store@PAVscoped_lock@queuing_rw_mutex@tbb@@$03@@SAPAVscoped_lock@queuing_rw_mutex@tbb@@ADSAV234@@Z 10014920 f i queuing_rw_mutex.obj
 0001:00013940       ?release_internal_lock@scoped_lock@queuing_rw_mutex@tbb@@AAEXXZ 10014940 f i queuing_rw_mutex.obj
 0001:00013970       ?store_with_release@?$__TBB_machine_load_store@D$00@@SAXACDD@Z 10014970 f i queuing_rw_mutex.obj
 0001:00013980       ?store_with_release@?$__TBB_machine_load_store@E$00@@SAXACEE@Z 10014980 f i queuing_rw_mutex.obj
 0001:00013990       ?store_with_release@?$__TBB_machine_load_store@PAVscoped_lock@queuing_rw_mutex@tbb@@$03@@SAXACRAVscoped_lock@queuing_rw_mutex@tbb@@PAV234@@Z 10014990 f i queuing_rw_mutex.obj
 0001:000139a0       ?store_with_release@?$atomic_impl@E@internal@tbb@@IAEEE@Z 100149a0 f i queuing_rw_mutex.obj
 0001:00013a10       ?try_acquire_internal_lock@scoped_lock@queuing_rw_mutex@tbb@@AAE_NXZ 10014a10 f i queuing_rw_mutex.obj
 0001:00013a70       ?unblock_or_wait_on_internal_lock@scoped_lock@queuing_rw_mutex@tbb@@AAEXI@Z 10014a70 f i queuing_rw_mutex.obj
 0001:00013ab0       ?wait_for_release_of_internal_lock@scoped_lock@queuing_rw_mutex@tbb@@AAEXXZ 10014ab0 f i queuing_rw_mutex.obj
 0001:00013ae0       ?internal_acquire@scoped_lock@recursive_mutex@tbb@@AAEXAAV23@@Z 10014ae0 f   recursive_mutex.obj
 0001:00013b90       ?internal_try_acquire@scoped_lock@recursive_mutex@tbb@@AAE_NAAV23@@Z 10014b90 f   recursive_mutex.obj
 0001:00013c60       ?internal_release@scoped_lock@recursive_mutex@tbb@@AAEXXZ 10014c60 f   recursive_mutex.obj
 0001:00013d30       ?internal_construct@recursive_mutex@tbb@@AAEXXZ 10014d30 f   recursive_mutex.obj
 0001:00013da0       ?internal_destroy@recursive_mutex@tbb@@AAEXXZ 10014da0 f   recursive_mutex.obj
 0001:00013eb0       ?internal_acquire@scoped_lock@spin_mutex@tbb@@AAEXAAV23@@Z 10014eb0 f   spin_mutex.obj
 0001:00013f50       ?internal_try_acquire@scoped_lock@spin_mutex@tbb@@AAE_NAAV23@@Z 10014f50 f   spin_mutex.obj
 0001:00013ff0       ?internal_release@scoped_lock@spin_mutex@tbb@@AAEXXZ 10014ff0 f   spin_mutex.obj
 0001:000140a0       ?internal_construct@spin_mutex@tbb@@QAEXXZ 100150a0 f   spin_mutex.obj
 0001:000140f0       ?__TBB_LockByte@@YAIAAE@Z  100150f0 f i spin_mutex.obj
 0001:00014180       ?__TBB_TryLockByte@@YA_NAAE@Z 10015180 f i spin_mutex.obj
 0001:000142b0       ?internal_acquire_writer@spin_rw_mutex_v3@tbb@@AAE_NXZ 100152b0 f   spin_rw_mutex.obj
 0001:000143b0       ?internal_release_writer@spin_rw_mutex_v3@tbb@@AAEXXZ 100153b0 f   spin_rw_mutex.obj
 0001:00014400       ?internal_acquire_reader@spin_rw_mutex_v3@tbb@@AAEXXZ 10015400 f   spin_rw_mutex.obj
 0001:00014510       ?internal_upgrade@spin_rw_mutex_v3@tbb@@AAE_NXZ 10015510 f   spin_rw_mutex.obj
 0001:00014690       ?internal_downgrade@spin_rw_mutex_v3@tbb@@AAEXXZ 10015690 f   spin_rw_mutex.obj
 0001:00014710       ?internal_release_reader@spin_rw_mutex_v3@tbb@@AAEXXZ 10015710 f   spin_rw_mutex.obj
 0001:00014790       ?internal_try_acquire_writer@spin_rw_mutex_v3@tbb@@AAE_NXZ 10015790 f   spin_rw_mutex.obj
 0001:00014810       ?internal_try_acquire_reader@spin_rw_mutex_v3@tbb@@AAE_NXZ 10015810 f   spin_rw_mutex.obj
 0001:000148a0       ?internal_construct@spin_rw_mutex_v3@tbb@@AAEXXZ 100158a0 f   spin_rw_mutex.obj
 0001:00014a30       ??1scheduler@internal@tbb@@UAE@XZ 10015a30 f   task.obj
 0001:00014a50       ?allocate@allocate_root_with_context_proxy@internal@tbb@@QBEAAVtask@3@I@Z 10015a50 f   task.obj
 0001:00014bd0       ?free@allocate_root_with_context_proxy@internal@tbb@@QBEXAAVtask@3@@Z 10015bd0 f   task.obj
 0001:00014c30       ?allocate@allocate_root_proxy@internal@tbb@@SAAAVtask@3@I@Z 10015c30 f   task.obj
 0001:00014cb0       ?free@allocate_root_proxy@internal@tbb@@SAXAAVtask@3@@Z 10015cb0 f   task.obj
 0001:00014d10       ?allocate@allocate_continuation_proxy@internal@tbb@@QBEAAVtask@3@I@Z 10015d10 f   task.obj
 0001:00014db0       ?free@allocate_continuation_proxy@internal@tbb@@QBEXAAVtask@3@@Z 10015db0 f   task.obj
 0001:00014e00       ?allocate@allocate_child_proxy@internal@tbb@@QBEAAVtask@3@I@Z 10015e00 f   task.obj
 0001:00014e90       ?free@allocate_child_proxy@internal@tbb@@QBEXAAVtask@3@@Z 10015e90 f   task.obj
 0001:00014ec0       ?allocate@allocate_additional_child_of_proxy@internal@tbb@@QBEAAVtask@3@I@Z 10015ec0 f   task.obj
 0001:00014f50       ?free@allocate_additional_child_of_proxy@internal@tbb@@QBEXAAVtask@3@@Z 10015f50 f   task.obj
 0001:00014f90       ??1task_group_context@tbb@@QAE@XZ 10015f90 f   task.obj
 0001:000150c0       ?reset@task_group_context@tbb@@QAEXXZ 100160c0 f   task.obj
 0001:00015110       ?cancel_group_execution@task_group_context@tbb@@QAE_NXZ 10016110 f   task.obj
 0001:00015190       ?is_group_execution_cancelled@task_group_context@tbb@@QBE_NXZ 10016190 f   task.obj
 0001:000151d0       ?register_pending_exception@task_group_context@tbb@@QAEXXZ 100161d0 f   task.obj
 0001:000153e0       ?init@task_group_context@tbb@@IAEXXZ 100163e0 f   task.obj
 0001:00015560       ?propagate_cancellation_from_ancestors@task_group_context@tbb@@QAEXXZ 10016560 f   task.obj
 0001:000155e0       ?internal_set_ref_count@task@tbb@@AAEXH@Z 100165e0 f   task.obj
 0001:00015690       ?internal_decrement_ref_count@task@tbb@@AAEHXZ 10016690 f   task.obj
 0001:00015760       ?destroy@task@tbb@@QAEXAAV12@@Z 10016760 f   task.obj
 0001:00015880       ?spawn_and_wait_for_all@task@tbb@@QAEXAAVtask_list@2@@Z 10016880 f   task.obj
 0001:00015930       ?self@task@tbb@@SAAAV12@XZ 10016930 f   task.obj
 0001:000159b0       ?is_owned_by_current_thread@task@tbb@@QBE_NXZ 100169b0 f   task.obj
 0001:000159d0       ?note_affinity@task@tbb@@UAEXG@Z 100169d0 f   task.obj
 0001:000159f0       ?move@captured_exception@tbb@@UAEPAV12@XZ 100169f0 f   task.obj
 0001:00015aa0       ?destroy@captured_exception@tbb@@UAEXXZ 10016aa0 f   task.obj
 0001:00015b10       ?name@captured_exception@tbb@@UBEPBDXZ 10016b10 f   task.obj
 0001:00015b30       ?what@captured_exception@tbb@@UBEPBDXZ 10016b30 f   task.obj
 0001:00015b50       ?set@captured_exception@tbb@@QAEXPBD0@Z 10016b50 f   task.obj
 0001:00015ba0       ?clear@captured_exception@tbb@@QAEXXZ 10016ba0 f   task.obj
 0001:00015be0       ?allocate@captured_exception@tbb@@SAPAV12@PBD0@Z 10016be0 f   task.obj
 0001:00015ca0       ?allocate@tbb_exception_ptr@internal@tbb@@SAPAV123@XZ 10016ca0 f   task.obj
 0001:00015d30       ?allocate@tbb_exception_ptr@internal@tbb@@SAPAV123@ABVtbb_exception@3@@Z 10016d30 f   task.obj
 0001:00015dc0       ?allocate@tbb_exception_ptr@internal@tbb@@SAPAV123@AAVcaptured_exception@3@@Z 10016dc0 f   task.obj
 0001:00015e10       ?destroy@tbb_exception_ptr@internal@tbb@@QAEXXZ 10016e10 f   task.obj
 0001:00015e40       ?initialize@task_scheduler_init@tbb@@QAEXH@Z 10016e40 f   task.obj
 0001:00015e70       ?initialize@task_scheduler_init@tbb@@QAEXHI@Z 10016e70 f   task.obj
 0001:00015f20       ?terminate@task_scheduler_init@tbb@@QAEXXZ 10016f20 f   task.obj
 0001:00015f90       ?default_num_threads@task_scheduler_init@tbb@@SAHXZ 10016f90 f   task.obj
 0001:00015fd0       ?observe@task_scheduler_observer_v3@internal@tbb@@QAEX_N@Z 10016fd0 f   task.obj
 0001:00016190       ?get_initial_auto_partitioner_divisor@internal@tbb@@YAIXZ 10017190 f   task.obj
 0001:000161c0       ?resize@affinity_partitioner_base_v3@internal@tbb@@AAEXI@Z 100171c0 f   task.obj
 0001:000162f0       ?remove_ref_slow@observer_proxy@internal@tbb@@AAEXXZ 100172f0 f   task.obj
 0001:000164a0       ?remove_from_list@observer_proxy@internal@tbb@@AAEXXZ 100174a0 f   task.obj
 0001:00016540       ??0observer_proxy@internal@tbb@@AAE@AAVtask_scheduler_observer_v3@12@@Z 10017540 f   task.obj
 0001:00016630       ?process_list@observer_proxy@internal@tbb@@SAPAV123@PAV123@_N1@Z 10017630 f   task.obj
 0001:00016940       ?open_connection_to_rml@UnpaddedArenaPrefix@internal@tbb@@IAEXXZ 10017940 f   task.obj
 0001:00016a50       ?create_one_job@UnpaddedArenaPrefix@internal@tbb@@EAEPAVjob@rml@@XZ 10017a50 f   task.obj
 0001:00016ad0       ?cleanup@UnpaddedArenaPrefix@internal@tbb@@EAEXAAVjob@rml@@@Z 10017ad0 f   task.obj
 0001:00016b30       ?acknowledge_close_connection@UnpaddedArenaPrefix@internal@tbb@@EAEXXZ 10017b30 f   task.obj
 0001:00016b60       ?process@UnpaddedArenaPrefix@internal@tbb@@EAEXAAVjob@rml@@@Z 10017b60 f   task.obj
 0001:00016c50       ?allocate_arena@Arena@internal@tbb@@CAPAV123@III@Z 10017c50 f   task.obj
 0001:00016fe0       ?check_if_pool_is_empty@Arena@internal@tbb@@AAE_NXZ 10017fe0 f   task.obj
 0001:00017170       ?terminate_workers@Arena@internal@tbb@@AAEXXZ 10018170 f   task.obj
 0001:00017240       ?DoOneTimeInitializations@internal@tbb@@YAXXZ 10018240 f   task.obj
 0001:000173a0       ?ITT_DoUnsafeOneTimeInitialization@internal@tbb@@YAXXZ 100183a0 f   task.obj
 0001:00017400       ?acquire_resources@__TBB_InitOnce@internal@tbb@@CAXXZ 10018400 f   task.obj
 0001:00017420       ?release_resources@__TBB_InitOnce@internal@tbb@@CAXXZ 10018420 f   task.obj
 0001:00017440       ??1__TBB_InitOnce@internal@tbb@@QAE@XZ 10018440 f   task.obj
 0001:00017480       ?auto_terminate@Governor@internal@tbb@@CAXPAX@Z 10018480 f   task.obj
 0001:00017530       ?init_scheduler@Governor@internal@tbb@@SAPAVGenericScheduler@23@HI_N@Z 10018530 f   task.obj
 0001:000175e0       ?terminate_scheduler@Governor@internal@tbb@@SAXPAVGenericScheduler@23@@Z 100185e0 f   task.obj
 0001:00017650       _ITT_DoOneTimeInitialization 10018650 f   task.obj
 0001:00017670       _DllMain@12                10018670 f   task.obj
 0001:000176d0       ?init_stack_info@GenericScheduler@internal@tbb@@AAEXXZ 100186d0 f   task.obj
 0001:000177c0       ?enter_arena@GenericScheduler@internal@tbb@@AAEXXZ 100187c0 f   task.obj
 0001:000178e0       ?try_enter_arena@GenericScheduler@internal@tbb@@AAEXXZ 100188e0 f   task.obj
 0001:00017b70       ?leave_arena@GenericScheduler@internal@tbb@@AAEXXZ 10018b70 f   task.obj
 0001:00017ce0       ?steal_task@GenericScheduler@internal@tbb@@AAEPAVtask@3@AAUArenaSlot@23@@Z 10018ce0 f   task.obj
 0001:00017ea0       ?allocate_task_pool@GenericScheduler@internal@tbb@@AAEPAPAVtask@3@I@Z 10018ea0 f   task.obj
 0001:00017f30       ?grow@GenericScheduler@internal@tbb@@AAEXI@Z 10018f30 f   task.obj
 0001:000180a0       ?create_master@GenericScheduler@internal@tbb@@CAPAV123@PAVArena@23@@Z 100190a0 f   task.obj
 0001:000182f0       ?cleanup_master@GenericScheduler@internal@tbb@@AAEXXZ 100192f0 f   task.obj
 0001:00018400       ?create_worker@GenericScheduler@internal@tbb@@CAPAV123@AAVArena@23@I@Z 10019400 f   task.obj
 0001:00018490       ?cleanup_worker@GenericScheduler@internal@tbb@@CAXPAX@Z 10019490 f   task.obj
 0001:00018530       ??0GenericScheduler@internal@tbb@@IAE@PAVArena@12@@Z 10019530 f   task.obj
 0001:000187e0       ?assert_okay@GenericScheduler@internal@tbb@@IBE_NXZ 100197e0 f   task.obj
 0001:00018800       ?local_spawn@GenericScheduler@internal@tbb@@QAEXAAVtask@3@AAPAV43@@Z 10019800 f   task.obj
 0001:00018dd0       ?local_spawn_root_and_wait@GenericScheduler@internal@tbb@@QAEXAAVtask@3@AAPAV43@@Z 10019dd0 f   task.obj
 0001:00019000       ?allocate_scheduler@GenericScheduler@internal@tbb@@SAPAV123@PAVArena@23@@Z 1001a000 f   task.obj
 0001:00019050       ?free_scheduler@GenericScheduler@internal@tbb@@QAEXXZ 1001a050 f   task.obj
 0001:00019270       ?free_nonlocal_small_task@GenericScheduler@internal@tbb@@QAEXAAVtask@3@@Z 1001a270 f   task.obj
 0001:000193a0       ?propagate_cancellation@GenericScheduler@internal@tbb@@QAEXPAVtask_group_context@3@@Z 1001a3a0 f   task.obj
 0001:00019580       ?propagate_cancellation@GenericScheduler@internal@tbb@@QAEXXZ 1001a580 f   task.obj
 0001:00019740       ??$AllocateExceptionContainer@Vcaptured_exception@tbb@@@internal@tbb@@YAPAVtbb_exception_ptr@01@ABVcaptured_exception@1@@Z 1001a740 f i task.obj
 0001:000197f0       ??$AllocateExceptionContainer@Vexception_ptr@std@@@internal@tbb@@YAPAVtbb_exception_ptr@01@ABVexception_ptr@std@@@Z 1001a7f0 f i task.obj
 0001:000198a0       ??$__TBB_machine_load_with_acquire@PAUcontext_list_node_t@internal@tbb@@@@YAPAUcontext_list_node_t@internal@tbb@@ADSAU012@@Z 1001a8a0 f i task.obj
 0001:000198c0       ??$__TBB_machine_load_with_acquire@PAUtask_proxy@internal@tbb@@@@YAPAUtask_proxy@internal@tbb@@ADSAU012@@Z 1001a8c0 f i task.obj
 0001:000198e0       ??$__TBB_machine_load_with_acquire@_N@@YA_NAD_N@Z 1001a8e0 f i task.obj
 0001:00019900       ??$__TBB_machine_store_with_release@PAPAVtask@tbb@@PAPAV12@@@YAXAAPAPAVtask@tbb@@PAPAV01@@Z 1001a900 f i task.obj
 0001:00019920       ??$__TBB_machine_store_with_release@PAUcontext_list_node_t@internal@tbb@@PAU123@@@YAXAAPAUcontext_list_node_t@internal@tbb@@PAU012@@Z 1001a920 f i task.obj
 0001:00019940       ??$__TBB_machine_store_with_release@PAUtask_proxy@internal@tbb@@PAU123@@@YAXAAPAUtask_proxy@internal@tbb@@PAU012@@Z 1001a940 f i task.obj
 0001:00019960       ??$__TBB_machine_store_with_release@PAVGenericScheduler@internal@tbb@@PAV123@@@YAXAAPAVGenericScheduler@internal@tbb@@PAV012@@Z 1001a960 f i task.obj
 0001:00019980       ??$__TBB_machine_store_with_release@PAVtask_group_context@tbb@@PAV12@@@YAXAAPAVtask_group_context@tbb@@PAV01@@Z 1001a980 f i task.obj
 0001:000199a0       ??$addressof@Vcaptured_exception@tbb@@@std@@YAPAVcaptured_exception@tbb@@AAV12@@Z 1001a9a0 f i task.obj
 0001:000199b0       ??$free_task@$00@GenericScheduler@internal@tbb@@QAEXAAVtask@2@@Z 1001a9b0 f i task.obj
 0001:00019ae0       ??$free_task@$01@GenericScheduler@internal@tbb@@QAEXAAVtask@2@@Z 1001aae0 f i task.obj
 0001:00019c20       ??$free_task@$02@GenericScheduler@internal@tbb@@QAEXAAVtask@2@@Z 1001ac20 f i task.obj
 0001:00019d50       ??$free_task@$0A@@GenericScheduler@internal@tbb@@QAEXAAVtask@2@@Z 1001ad50 f i task.obj
 0001:00019e80       ??$make_exception_ptr@Vcaptured_exception@tbb@@@std@@YA?AVexception_ptr@0@Vcaptured_exception@tbb@@@Z 1001ae80 f i task.obj
 0001:00019f10       ??$poison_pointer@Utask_proxy@internal@tbb@@@internal@tbb@@YAXAAPAUtask_proxy@01@@Z 1001af10 f i task.obj
 0001:00019f20       ??$poison_pointer@Vmail_outbox@internal@tbb@@@internal@tbb@@YAXAAPAVmail_outbox@01@@Z 1001af20 f i task.obj
 0001:00019f30       ??$poison_pointer@Vobserver_proxy@internal@tbb@@@internal@tbb@@YAXAAPAVobserver_proxy@01@@Z 1001af30 f i task.obj
 0001:00019f40       ??$poison_pointer@Vscheduler@internal@tbb@@@internal@tbb@@YAXAAPAVscheduler@01@@Z 1001af40 f i task.obj
 0001:00019f50       ??$poison_pointer@Vtask@tbb@@@internal@tbb@@YAXAAPAVtask@1@@Z 1001af50 f i task.obj
 0001:00019f60       ??0?$CustomScheduler@UDefaultSchedulerTraits@internal@tbb@@@internal@tbb@@AAE@PAVArena@12@@Z 1001af60 f i task.obj
 0001:00019fa0       ??0?$CustomScheduler@UIntelSchedulerTraits@internal@tbb@@@internal@tbb@@AAE@PAVArena@12@@Z 1001afa0 f i task.obj
 0001:00019fe0       ??0?$fast_reverse_vector@PAVtask@tbb@@$0BA@@internal@tbb@@QAE@PAPAVtask@2@I@Z 1001afe0 f i task.obj
 0001:0001a060       ??0ArenaPrefix@internal@tbb@@QAE@II@Z 1001b060 f i task.obj
 0001:0001a0a0       ??0FastRandom@internal@tbb@@QAE@I@Z 1001b0a0 f i task.obj
 0001:0001a0e0       ??0UnpaddedArenaPrefix@internal@tbb@@IAE@II@Z 1001b0e0 f i task.obj
 0001:0001a170       ??0auto_empty_task@internal@tbb@@QAE@PAVGenericScheduler@12@PAVtask_group_context@2@@Z 1001b170 f i task.obj
 0001:0001a230       ??0captured_exception@tbb@@QAE@ABV01@@Z 1001b230 f i task.obj
 0001:0001a290       ??0captured_exception@tbb@@QAE@PBD0@Z 1001b290 f i task.obj
 0001:0001a2e0       ??0captured_exception@tbb@@QAE@XZ 1001b2e0 f i task.obj
 0001:0001a310       ??0client@rml@@QAE@XZ      1001b310 f i task.obj
 0001:0001a340       ??0empty_task@tbb@@QAE@XZ  1001b340 f i task.obj
 0001:0001a370       ??0exception_ptr@std@@QAE@$$T@Z 1001b370 f i task.obj
 0001:0001a3b0       ??0exception_ptr@std@@QAE@ABV01@@Z 1001b3b0 f i task.obj
 0001:0001a3f0       ??0exception_ptr@std@@QAE@XZ 1001b3f0 f i task.obj
 0001:0001a430       ??0mail_inbox@internal@tbb@@QAE@XZ 1001b430 f i task.obj
 0001:0001a450       ??0mutex@tbb@@QAE@XZ       1001b450 f i task.obj
 0001:0001a480       ??0scheduler@internal@tbb@@QAE@XZ 1001b480 f i task.obj
 0001:0001a4c0       ??0scoped_lock@mutex@tbb@@QAE@AAV12@@Z 1001b4c0 f i task.obj
 0001:0001a500       ??0scoped_lock@spin_rw_mutex_v3@tbb@@QAE@AAV12@_N@Z 1001b500 f i task.obj
 0001:0001a550       ??0tbb_client@rml@internal@tbb@@QAE@XZ 1001b550 f i task.obj
 0001:0001a580       ??0tbb_exception@tbb@@QAE@ABV01@@Z 1001b580 f i task.obj
 0001:0001a5d0       ??0tbb_exception@tbb@@QAE@XZ 1001b5d0 f i task.obj
 0001:0001a610       ??0tbb_exception_ptr@internal@tbb@@QAE@ABVcaptured_exception@2@@Z 1001b610 f i task.obj
 0001:0001a660       ??0tbb_exception_ptr@internal@tbb@@QAE@ABVexception_ptr@std@@@Z 1001b660 f i task.obj
 0001:0001a690       ??1?$CustomScheduler@UDefaultSchedulerTraits@internal@tbb@@@internal@tbb@@UAE@XZ 1001b690 f i task.obj
 0001:0001a6c0       ??1?$CustomScheduler@UIntelSchedulerTraits@internal@tbb@@@internal@tbb@@UAE@XZ 1001b6c0 f i task.obj
 0001:0001a6f0       ??1?$fast_reverse_vector@PAVtask@tbb@@$0BA@@internal@tbb@@QAE@XZ 1001b6f0 f i task.obj
 0001:0001a750       ??1GenericScheduler@internal@tbb@@UAE@XZ 1001b750 f i task.obj
 0001:0001a780       ??1auto_empty_task@internal@tbb@@QAE@XZ 1001b780 f i task.obj
 0001:0001a7b0       ??1captured_exception@tbb@@UAE@XZ 1001b7b0 f i task.obj
 0001:0001a7f0       ??1check_observer_proxy_count@internal@tbb@@QAE@XZ 1001b7f0 f i task.obj
 0001:0001a860       ??1empty_task@tbb@@UAE@XZ  1001b860 f i task.obj
 0001:0001a890       ??1exception_ptr@std@@QAE@XZ 1001b890 f i task.obj
 0001:0001a8d0       ??1mutex@tbb@@QAE@XZ       1001b8d0 f i task.obj
 0001:0001a900       ??1scoped_lock@mutex@tbb@@QAE@XZ 1001b900 f i task.obj
 0001:0001a930       ??1scoped_lock@spin_rw_mutex_v3@tbb@@QAE@XZ 1001b930 f i task.obj
 0001:0001a960       ??1tbb_exception@tbb@@UAE@XZ 1001b960 f i task.obj
 0001:0001a990       ??1tbb_exception_ptr@internal@tbb@@QAE@XZ 1001b990 f i task.obj
 0001:0001a9c0       ??3tbb_exception@tbb@@SAXPAX@Z 1001b9c0 f i task.obj
 0001:0001a9e0       ??Bauto_empty_task@internal@tbb@@QAEAAVtask@2@XZ 1001b9e0 f i task.obj
 0001:0001aa00       ??Iauto_empty_task@internal@tbb@@QAEPAVtask@2@XZ 1001ba00 f i task.obj
 0001:0001aa20       ??Z?$atomic_impl_with_arithmetic@HHD@internal@tbb@@QAEHH@Z 1001ba20 f i task.obj
 0001:0001aa50       ??_G?$CustomScheduler@UDefaultSchedulerTraits@internal@tbb@@@internal@tbb@@UAEPAXI@Z 1001ba50 f i task.obj
 0001:0001aa50       ??_E?$CustomScheduler@UDefaultSchedulerTraits@internal@tbb@@@internal@tbb@@UAEPAXI@Z 1001ba50 f i task.obj
 0001:0001aa90       ??_G?$CustomScheduler@UIntelSchedulerTraits@internal@tbb@@@internal@tbb@@UAEPAXI@Z 1001ba90 f i task.obj
 0001:0001aa90       ??_E?$CustomScheduler@UIntelSchedulerTraits@internal@tbb@@@internal@tbb@@UAEPAXI@Z 1001ba90 f i task.obj
 0001:0001aad0       ??_EGenericScheduler@internal@tbb@@UAEPAXI@Z 1001bad0 f i task.obj
 0001:0001aad0       ??_GGenericScheduler@internal@tbb@@UAEPAXI@Z 1001bad0 f i task.obj
 0001:0001ab10       ??_Gcaptured_exception@tbb@@UAEPAXI@Z 1001bb10 f i task.obj
 0001:0001ab10       ??_Ecaptured_exception@tbb@@UAEPAXI@Z 1001bb10 f i task.obj
 0001:0001ab50       ??_Eempty_task@tbb@@UAEPAXI@Z 1001bb50 f i task.obj
 0001:0001ab50       ??_Gempty_task@tbb@@UAEPAXI@Z 1001bb50 f i task.obj
 0001:0001ab90       ??_Etbb_exception@tbb@@UAEPAXI@Z 1001bb90 f i task.obj
 0001:0001ab90       ??_Gtbb_exception@tbb@@UAEPAXI@Z 1001bb90 f i task.obj
 0001:0001abd0       ?_Copy_exception@exception_ptr@std@@SA?AV12@PAXPBX@Z 1001bbd0 f i task.obj
 0001:0001ace0       ?_Current_exception@exception_ptr@std@@SA?AV12@XZ 1001bce0 f i task.obj
 0001:0001adc0       ?_RethrowException@exception_ptr@std@@QBEXXZ 1001bdc0 f i task.obj
 0001:0001ae00       ?__TBB_machine_store_with_release@@YAXAAII@Z 1001be00 f i task.obj
 0001:0001ae20       ?__TBB_rel_acq_fence@@YAXXZ 1001be20 f i task.obj
 0001:0001ae30       ?acquire@mail_outbox@internal@tbb@@AAEPAUtask_proxy@23@XZ 1001be30 f i task.obj
 0001:0001af30       ?acquire@scoped_lock@mutex@tbb@@QAEXAAV23@@Z 1001bf30 f i task.obj
 0001:0001af60       ?acquire@scoped_lock@spin_rw_mutex_v3@tbb@@QAEXAAV23@_N@Z 1001bf60 f i task.obj
 0001:0001afd0       ?acquire_task_pool@GenericScheduler@internal@tbb@@ABEXXZ 1001bfd0 f i task.obj
 0001:0001b190       ?add_ref@__TBB_InitOnce@internal@tbb@@SAXXZ 1001c190 f i task.obj
 0001:0001b1b0       ?allocate_scheduler@?$CustomScheduler@UDefaultSchedulerTraits@internal@tbb@@@internal@tbb@@SAPAVGenericScheduler@23@PAVArena@23@@Z 1001c1b0 f i task.obj
 0001:0001b2e0       ?allocate_scheduler@?$CustomScheduler@UIntelSchedulerTraits@internal@tbb@@@internal@tbb@@SAPAVGenericScheduler@23@PAVArena@23@@Z 1001c2e0 f i task.obj
 0001:0001b410       ?allocate_task@GenericScheduler@internal@tbb@@QAEAAVtask@3@IPAV43@PAVtask_group_context@3@@Z 1001c410 f i task.obj
 0001:0001b650       ?arena@UnpaddedArenaPrefix@internal@tbb@@AAEAAVArena@23@XZ 1001c650 f i task.obj
 0001:0001b670       ?assert_is_idle@mail_inbox@internal@tbb@@QBE_N_N@Z 1001c670 f i task.obj
 0001:0001b6d0       ?assert_is_initialized@mail_outbox@internal@tbb@@QBEXXZ 1001c6d0 f i task.obj
 0001:0001b780       ?attach@mail_inbox@internal@tbb@@QAEXAAVmail_outbox@23@@Z 1001c780 f i task.obj
 0001:0001b7d0       ?attach_mailbox@GenericScheduler@internal@tbb@@AAEXG@Z 1001c7d0 f i task.obj
 0001:0001b850       ?begin@?$aligned_space@Vspin_rw_mutex_v3@tbb@@$00@tbb@@QAEPAVspin_rw_mutex_v3@2@XZ 1001c850 f i task.obj
 0001:0001b870       ?can_steal@GenericScheduler@internal@tbb@@AAE_NXZ 1001c870 f i task.obj
 0001:0001b8b0       ?clear@task_list@tbb@@QAEXXZ 1001c8b0 f i task.obj
 0001:0001b8e0       ?copy_memory@?$fast_reverse_vector@PAVtask@tbb@@$0BA@@internal@tbb@@QBEXPAPAVtask@3@@Z 1001c8e0 f i task.obj
 0001:0001b9b0       ?copy_string@tbb@@YAXAAPADPBD@Z 1001c9b0 f i task.obj
 0001:0001ba20       ?create@?$basic_tls@PAVGenericScheduler@internal@tbb@@@internal@tbb@@QAEHXZ 1001ca20 f i task.obj
 0001:0001ba70       ?create_tls@Governor@internal@tbb@@CAXXZ 1001ca70 f i task.obj
 0001:0001bab0       ?current_exception@std@@YA?AVexception_ptr@1@XZ 1001cab0 f i task.obj
 0001:0001baf0       ?deallocate_task@GenericScheduler@internal@tbb@@QAEXAAVtask@3@@Z 1001caf0 f i task.obj
 0001:0001bb70       ?destroy@?$basic_tls@PAVGenericScheduler@internal@tbb@@@internal@tbb@@QAEHXZ 1001cb70 f i task.obj
 0001:0001bbb0       ?destroy_tls@Governor@internal@tbb@@CAXXZ 1001cbb0 f i task.obj
 0001:0001bc40       ?detach@mail_inbox@internal@tbb@@QAEXXZ 1001cc40 f i task.obj
 0001:0001bc90       ?do_enter_arena@GenericScheduler@internal@tbb@@AAEXXZ 1001cc90 f i task.obj
 0001:0001bd90       ?drain@mail_outbox@internal@tbb@@QAEHXZ 1001cd90 f i task.obj
 0001:0001be00       ?execute@empty_task@tbb@@EAEPAVtask@2@XZ 1001ce00 f i task.obj
 0001:0001be20       ?finish_with_arena@Governor@internal@tbb@@SAXXZ 1001ce20 f i task.obj
 0001:0001bf30       ?free_arena@Arena@internal@tbb@@AAEXXZ 1001cf30 f i task.obj
 0001:0001c060       ?free_task_pool@GenericScheduler@internal@tbb@@CAXPAPAVtask@3@@Z 1001d060 f i task.obj
 0001:0001c0a0       ?free_task_proxy@GenericScheduler@internal@tbb@@QAEXAAUtask_proxy@23@@Z 1001d0a0 f i task.obj
 0001:0001c100       ?get@?$basic_tls@PAVGenericScheduler@internal@tbb@@@internal@tbb@@QAEPAVGenericScheduler@23@XZ 1001d100 f i task.obj
 0001:0001c140       ?get@FastRandom@internal@tbb@@QAEGXZ 1001d140 f i task.obj
 0001:0001c180       ?get_mailbox_task@GenericScheduler@internal@tbb@@AAEPAVtask@3@XZ 1001d180 f i task.obj
 0001:0001c2c0       ?get_task@GenericScheduler@internal@tbb@@AAEPAVtask@3@XZ 1001d2c0 f i task.obj
 0001:0001c580       ?in_arena@GenericScheduler@internal@tbb@@ABE_NXZ 1001d580 f i task.obj
 0001:0001c5c0       ?increment_ref_count@task@tbb@@QAEXXZ 1001d5c0 f i task.obj
 0001:0001c600       ?initialization_done@__TBB_InitOnce@internal@tbb@@SA_NXZ 1001d600 f i task.obj
 0001:0001c620       ?internal_pop@mail_outbox@internal@tbb@@AAEPAUtask_proxy@23@XZ 1001d620 f i task.obj
 0001:0001c6f0       ?is_alive@task_group_context@tbb@@QAE_NXZ 1001d6f0 f i task.obj
 0001:0001c730       ?is_busy_or_empty@Arena@internal@tbb@@CA_NI@Z 1001d730 f i task.obj
 0001:0001c760       ?is_local_task_pool_empty@GenericScheduler@internal@tbb@@AAE_NXZ 1001d760 f i task.obj
 0001:0001c7c0       ?is_proxy@GenericScheduler@internal@tbb@@CA_NABVtask@3@@Z 1001d7c0 f i task.obj
 0001:0001c800       ?is_set@Governor@internal@tbb@@SA_NPAVGenericScheduler@23@@Z 1001d800 f i task.obj
 0001:0001c840       ?is_version_3_task@GenericScheduler@internal@tbb@@CA_NAAVtask@3@@Z 1001d840 f i task.obj
 0001:0001c890       ?is_worker@GenericScheduler@internal@tbb@@QAE_NXZ 1001d890 f i task.obj
 0001:0001c8f0       ?load_with_acquire@?$__TBB_machine_load_store@PAUcontext_list_node_t@internal@tbb@@$03@@SAPAUcontext_list_node_t@internal@tbb@@ADSAU234@@Z 1001d8f0 f i task.obj
 0001:0001c910       ?load_with_acquire@?$__TBB_machine_load_store@PAUtask_proxy@internal@tbb@@$03@@SAPAUtask_proxy@internal@tbb@@ADSAU234@@Z 1001d910 f i task.obj
 0001:0001c930       ?load_with_acquire@?$__TBB_machine_load_store@_N$00@@SA_NAD_N@Z 1001d930 f i task.obj
 0001:0001c950       ?local_scheduler@Governor@internal@tbb@@SAPAVGenericScheduler@23@XZ 1001d950 f i task.obj
 0001:0001c9b0       ?local_wait_for_all@?$CustomScheduler@UDefaultSchedulerTraits@internal@tbb@@@internal@tbb@@AAEXAAVtask@3@PAV43@@Z 1001d9b0 f i task.obj
 0001:0001dd10       ?local_wait_for_all@?$CustomScheduler@UIntelSchedulerTraits@internal@tbb@@@internal@tbb@@AAEXAAVtask@3@PAV43@@Z 1001ed10 f i task.obj
 0001:0001f050       ?lock@__TBB_InitOnce@internal@tbb@@SAXXZ 10020050 f i task.obj
 0001:0001f070       ?lock_task_pool@GenericScheduler@internal@tbb@@ABEPAPAVtask@3@PAUArenaSlot@23@@Z 10020070 f i task.obj
 0001:0001f1d0       ?mailbox@Arena@internal@tbb@@AAEAAVmail_outbox@23@G@Z 100201d0 f i task.obj
 0001:0001f260       ?mark_pool_full@Arena@internal@tbb@@AAEXXZ 10020260 f i task.obj
 0001:0001f330       ?max_job_count@UnpaddedArenaPrefix@internal@tbb@@EBEIXZ 10020330 f i task.obj
 0001:0001f350       ?min_stack_size@UnpaddedArenaPrefix@internal@tbb@@EBEIXZ 10020350 f i task.obj
 0001:0001f370       ?notify_entry_observers@GenericScheduler@internal@tbb@@AAEXXZ 10020370 f i task.obj
 0001:0001f3c0       ?notify_exit_observers@GenericScheduler@internal@tbb@@AAEX_N@Z 100203c0 f i task.obj
 0001:0001f400       ?number_of_workers_in_arena@Governor@internal@tbb@@SAIXZ 10020400 f i task.obj
 0001:0001f450       ?obtain_arena@Governor@internal@tbb@@CAPAVArena@23@HI@Z 10020450 f i task.obj
 0001:0001f5e0       ?outbox@mail_inbox@internal@tbb@@QBEPAXXZ 100205e0 f i task.obj
 0001:0001f600       ?plugged_return_list@GenericScheduler@internal@tbb@@SAPAVtask@3@XZ 10020600 f i task.obj
 0001:0001f610       ?policy@UnpaddedArenaPrefix@internal@tbb@@EBE?AW4policy_type@client@rml@@XZ 10020610 f i task.obj
 0001:0001f630       ?pop@mail_inbox@internal@tbb@@QAEPAUtask_proxy@23@XZ 10020630 f i task.obj
 0001:0001f660       ?prefix@Arena@internal@tbb@@ABEAAVArenaPrefix@23@XZ 10020660 f i task.obj
 0001:0001f680       ?prefix@auto_empty_task@internal@tbb@@QAEAAVtask_prefix@23@XZ 10020680 f i task.obj
 0001:0001f6b0       ?prefix@task@tbb@@QBEAAVtask_prefix@internal@2@PAUversion_tag_v3@42@@Z 100206b0 f i task.obj
 0001:0001f6d0       ?prepare_for_spawning@GenericScheduler@internal@tbb@@AAEPAVtask@3@PAV43@@Z 100206d0 f i task.obj
 0001:0001f8d0       ?push@mail_outbox@internal@tbb@@QAEXAAUtask_proxy@23@@Z 100208d0 f i task.obj
 0001:0001f960       ?push_back@?$fast_reverse_vector@PAVtask@tbb@@$0BA@@internal@tbb@@QAEXABQAVtask@3@@Z 10020960 f i task.obj
 0001:0001fa50       ?recipient_is_idle@mail_outbox@internal@tbb@@QAE_NXZ 10020a50 f i task.obj
 0001:0001fa70       ?ref_count@task@tbb@@QBEHXZ 10020a70 f i task.obj
 0001:0001fae0       ?release@scoped_lock@mutex@tbb@@QAEXXZ 10020ae0 f i task.obj
 0001:0001fb10       ?release@scoped_lock@spin_rw_mutex_v3@tbb@@QAEXXZ 10020b10 f i task.obj
 0001:0001fb90       ?release_task_pool@GenericScheduler@internal@tbb@@ABEXXZ 10020b90 f i task.obj
 0001:0001fc60       ?remove_ref@__TBB_InitOnce@internal@tbb@@SAXXZ 10020c60 f i task.obj
 0001:0001fcc0       ?rethrow_exception@std@@YAXVexception_ptr@1@@Z 10020cc0 f i task.obj
 0001:0001fd20       ?set@?$basic_tls@PAVGenericScheduler@internal@tbb@@@internal@tbb@@QAEXPAVGenericScheduler@23@@Z 10020d20 f i task.obj
 0001:0001fd60       ?set_is_idle@mail_inbox@internal@tbb@@QAEX_N@Z 10020d60 f i task.obj
 0001:0001fdd0       ?sign_off@Governor@internal@tbb@@SAXPAVGenericScheduler@23@@Z 10020dd0 f i task.obj
 0001:0001fe40       ?sign_on@Governor@internal@tbb@@SAXPAVGenericScheduler@23@@Z 10020e40 f i task.obj
 0001:0001fea0       ?size@?$fast_reverse_vector@PAVtask@tbb@@$0BA@@internal@tbb@@QBEIXZ 10020ea0 f i task.obj
 0001:0001fed0       ?spawn@GenericScheduler@internal@tbb@@UAEXAAVtask@3@AAPAV43@@Z 10020ed0 f i task.obj
 0001:0001ff10       ?spawn_root_and_wait@GenericScheduler@internal@tbb@@UAEXAAVtask@3@AAPAV43@@Z 10020f10 f i task.obj
 0001:0001ff50       ?state@task@tbb@@QBE?AW4state_type@12@XZ 10020f50 f i task.obj
 0001:0001ff80       ?store_with_release@?$__TBB_machine_load_store@PAPAVtask@tbb@@$03@@SAXACRAPAVtask@tbb@@PAPAV23@@Z 10020f80 f i task.obj
 0001:0001ff90       ?store_with_release@?$__TBB_machine_load_store@PAUcontext_list_node_t@internal@tbb@@$03@@SAXACRAUcontext_list_node_t@internal@tbb@@PAU234@@Z 10020f90 f i task.obj
 0001:0001ffa0       ?store_with_release@?$__TBB_machine_load_store@PAUtask_proxy@internal@tbb@@$03@@SAXACRAUtask_proxy@internal@tbb@@PAU234@@Z 10020fa0 f i task.obj
 0001:0001ffb0       ?store_with_release@?$__TBB_machine_load_store@PAVGenericScheduler@internal@tbb@@$03@@SAXACRAVGenericScheduler@internal@tbb@@PAV234@@Z 10020fb0 f i task.obj
 0001:0001ffc0       ?store_with_release@?$__TBB_machine_load_store@PAVtask_group_context@tbb@@$03@@SAXACRAVtask_group_context@tbb@@PAV23@@Z 10020fc0 f i task.obj
 0001:0001ffd0       ?strip_proxy@GenericScheduler@internal@tbb@@AAEPAVtask@3@PAUtask_proxy@23@@Z 10020fd0 f i task.obj
 0001:00020100       ?tally_completion_of_one_predecessor@?$CustomScheduler@UDefaultSchedulerTraits@internal@tbb@@@internal@tbb@@CA_NAAVtask@3@@Z 10021100 f i task.obj
 0001:000201e0       ?tally_completion_of_one_predecessor@?$CustomScheduler@UIntelSchedulerTraits@internal@tbb@@@internal@tbb@@CA_NAAVtask@3@@Z 100211e0 f i task.obj
 0001:000202d0       ?terminate_auto_initialized_scheduler@Governor@internal@tbb@@SAXXZ 100212d0 f i task.obj
 0001:000202f0       ?throw_self@captured_exception@tbb@@UAEXXZ 100212f0 f i task.obj
 0001:00020340       ?throw_self@tbb_exception_ptr@internal@tbb@@QAEXXZ 10021340 f i task.obj
 0001:00020390       ?unlock@__TBB_InitOnce@internal@tbb@@SAXXZ 10021390 f i task.obj
 0001:000203b0       ?unlock_task_pool@GenericScheduler@internal@tbb@@ABEXPAUArenaSlot@23@PAPAVtask@3@@Z 100213b0 f i task.obj
 0001:00020450       ?version@UnpaddedArenaPrefix@internal@tbb@@EBEIXZ 10021450 f i task.obj
 0001:00020470       ?wait_for_all@?$CustomScheduler@UDefaultSchedulerTraits@internal@tbb@@@internal@tbb@@EAEXAAVtask@3@PAV43@@Z 10021470 f i task.obj
 0001:000204b0       ?wait_for_all@?$CustomScheduler@UIntelSchedulerTraits@internal@tbb@@@internal@tbb@@EAEXAAVtask@3@PAV43@@Z 100214b0 f i task.obj
 0001:000204f0       _NtCurrentTeb              100214f0 f i task.obj
 0001:00020500       ?set_assertion_handler@tbb@@YAP6AXPBDH00@ZP6AX0H00@Z@Z 10021500 f   tbb_misc.obj
 0001:00020530       ?assertion_failure@tbb@@YAXPBDH00@Z 10021530 f   tbb_misc.obj
 0001:00020660       _TBB_runtime_interface_version 10021660 f   tbb_misc.obj
 0001:00020670       ?runtime_warning@internal@tbb@@YAXPBDZZ 10021670 f   tbb_misc.obj
 0001:000207c0       ?handle_perror@internal@tbb@@YAXHPBD@Z 100217c0 f   tbb_misc.obj
 0001:00020900       ?GetBoolEnvironmentVariable@internal@tbb@@YA_NPBD@Z 10021900 f   tbb_misc.obj
 0001:00020970       ?PrintVersion@internal@tbb@@YAXXZ 10021970 f   tbb_misc.obj
 0001:000209c0       ?PrintExtraVersionInfo@internal@tbb@@YAXPBD0@Z 100219c0 f   tbb_misc.obj
 0001:00020a20       ?PrintRMLVersionInfo@internal@tbb@@YAXPAXPBD@Z 10021a20 f   tbb_misc.obj
 0001:00020a40       ?throw_bad_last_alloc_exception_v4@internal@tbb@@YAXXZ 10021a40 f   tbb_misc.obj
 0001:00020a80       ___TBB_machine_store8_slow_perf_warning 10021a80 f   tbb_misc.obj
 0001:00020b20       ___TBB_machine_store8_slow 10021b20 f   tbb_misc.obj
 0001:00020bd0       ??4?$atomic@PAX@tbb@@QAEPAXPAX@Z 10021bd0 f i tbb_misc.obj
 0001:00020c00       ??B?$atomic_impl@PAX@internal@tbb@@QDEPAXXZ 10021c00 f i tbb_misc.obj
 0001:00020c70       ?store_with_release@?$atomic_impl@PAX@internal@tbb@@IAEPAXPAX@Z 10021c70 f i tbb_misc.obj
 0001:00020ce0       ?strchr@@YAPADPADH@Z       10021ce0 f i tbb_misc.obj
 0001:00020d10       ?allocate_closure_v3@internal@tbb@@YAPAXI@Z 10021d10 f   tbb_thread.obj
 0001:00020d30       ?free_closure_v3@internal@tbb@@YAXPAX@Z 10021d30 f   tbb_thread.obj
 0001:00020d50       ?join@tbb_thread_v3@internal@tbb@@QAEXXZ 10021d50 f   tbb_thread.obj
 0001:00020e30       ?detach@tbb_thread_v3@internal@tbb@@QAEXXZ 10021e30 f   tbb_thread.obj
 0001:00020ed0       ?hardware_concurrency@tbb_thread_v3@internal@tbb@@SAIXZ 10021ed0 f   tbb_thread.obj
 0001:00020ef0       ?internal_start@tbb_thread_v3@internal@tbb@@AAEXP6GIPAX@Z0@Z 10021ef0 f   tbb_thread.obj
 0001:00020fc0       ?move_v3@internal@tbb@@YAXAAVtbb_thread_v3@12@0@Z 10021fc0 f   tbb_thread.obj
 0001:00021010       ?thread_get_id_v3@internal@tbb@@YA?AVid@tbb_thread_v3@12@XZ 10022010 f   tbb_thread.obj
 0001:00021040       ?thread_yield_v3@internal@tbb@@YAXXZ 10022040 f   tbb_thread.obj
 0001:00021060       ?thread_sleep_v3@internal@tbb@@YAXABVinterval_t@tick_count@2@@Z 10022060 f   tbb_thread.obj
 0001:00021190       ?handle_win_error@internal@tbb@@YAXH@Z 10022190 f   tbb_thread.obj
 0001:000212b0       ??0id@tbb_thread_v3@internal@tbb@@AAE@K@Z 100222b0 f i tbb_thread.obj
 0001:000212d0       ??0interval_t@tick_count@tbb@@AAE@_J@Z 100222d0 f i tbb_thread.obj
 0001:00021300       ??0runtime_error@std@@QAE@ABV?$basic_string@DU?$char_traits@D@std@@V?$allocator@D@2@@1@@Z 10022300 f i tbb_thread.obj
 0001:00021360       ??0tick_count@tbb@@QAE@XZ  10022360 f i tbb_thread.obj
 0001:00021390       ??1?$basic_string@DU?$char_traits@D@std@@V?$allocator@D@2@@std@@QAE@XZ 10022390 f i tbb_thread.obj
 0001:000213c0       ??Gtbb@@YA?AVinterval_t@tick_count@0@ABV120@0@Z 100223c0 f i tbb_thread.obj
 0001:000213f0       ??Gtbb@@YA?AVinterval_t@tick_count@0@ABV20@0@Z 100223f0 f i tbb_thread.obj
 0001:00021420       ?c_str@?$basic_string@DU?$char_traits@D@std@@V?$allocator@D@2@@std@@QBEPBDXZ 10022420 f i tbb_thread.obj
 0001:00021450       ?joinable@tbb_thread_v3@internal@tbb@@QBE_NXZ 10022450 f i tbb_thread.obj
 0001:00021490       ?now@tick_count@tbb@@SA?AV12@XZ 10022490 f i tbb_thread.obj
 0001:00021540       ?seconds@interval_t@tick_count@tbb@@QBENXZ 10022540 f i tbb_thread.obj
 0001:000215f0       ___TBB_machine_fetchadd1   100225f0     atomic_support.obj
 0001:00021600       ___TBB_machine_fetchstore1 10022600     atomic_support.obj
 0001:0002160c       ___TBB_machine_cmpswp1     1002260c     atomic_support.obj
 0001:00021620       ___TBB_machine_fetchadd2   10022620     atomic_support.obj
 0001:00021630       ___TBB_machine_fetchstore2 10022630     atomic_support.obj
 0001:00021640       ___TBB_machine_cmpswp2     10022640     atomic_support.obj
 0001:00021654       ___TBB_machine_fetchadd4   10022654     atomic_support.obj
 0001:00021664       ___TBB_machine_fetchstore4 10022664     atomic_support.obj
 0001:00021670       ___TBB_machine_cmpswp4     10022670     atomic_support.obj
 0001:00021684       ___TBB_machine_fetchadd8   10022684     atomic_support.obj
 0001:000216a4       ___TBB_machine_fetchstore8 100226a4     atomic_support.obj
 0001:000216c0       ___TBB_machine_cmpswp8     100226c0     atomic_support.obj
 0001:000216e0       ___TBB_machine_load8       100226e0     atomic_support.obj
 0001:00021714       ___TBB_machine_store8      10022714     atomic_support.obj
 0001:00021730       ___TBB_machine_trylockbyte 10022730     lock_byte.obj
 0001:0002174c       _SwitchToThread@0          1002274c f   kernel32:KERNEL32.dll
 0001:00021752       _CloseHandle@4             10022752 f   kernel32:KERNEL32.dll
 0001:00021758       _InitializeCriticalSection@4 10022758 f   kernel32:KERNEL32.dll
 0001:0002175e       _EnterCriticalSection@4    1002275e f   kernel32:KERNEL32.dll
 0001:00021764       _LeaveCriticalSection@4    10022764 f   kernel32:KERNEL32.dll
 0001:0002176a       _DeleteCriticalSection@4   1002276a f   kernel32:KERNEL32.dll
 0001:00021770       _SetEvent@4                10022770 f   kernel32:KERNEL32.dll
 0001:00021776       _ResetEvent@4              10022776 f   kernel32:KERNEL32.dll
 0001:0002177c       _WaitForSingleObject@8     1002277c f   kernel32:KERNEL32.dll
 0001:00021782       _CreateEventW@16           10022782 f   kernel32:KERNEL32.dll
 0001:00021788       _SetErrorMode@4            10022788 f   kernel32:KERNEL32.dll
 0001:0002178e       _FreeLibrary@4             1002278e f   kernel32:KERNEL32.dll
 0001:00021794       _GetModuleHandleA@4        10022794 f   kernel32:KERNEL32.dll
 0001:0002179a       _GetProcAddress@8          1002279a f   kernel32:KERNEL32.dll
 0001:000217a0       _LoadLibraryA@4            100227a0 f   kernel32:KERNEL32.dll
 0001:000217a6       _GetEnvironmentVariableA@12 100227a6 f   kernel32:KERNEL32.dll
 0001:000217ac       _TryEnterCriticalSection@4 100227ac f   kernel32:KERNEL32.dll
 0001:000217b2       _CreateEventA@16           100227b2 f   kernel32:KERNEL32.dll
 0001:000217b8       _TlsAlloc@0                100227b8 f   kernel32:KERNEL32.dll
 0001:000217be       _TlsGetValue@4             100227be f   kernel32:KERNEL32.dll
 0001:000217c4       _TlsSetValue@8             100227c4 f   kernel32:KERNEL32.dll
 0001:000217ca       _TlsFree@4                 100227ca f   kernel32:KERNEL32.dll
 0001:000217d0       _GetSystemInfo@4           100227d0 f   kernel32:KERNEL32.dll
 0001:000217d6       _GetLastError@0            100227d6 f   kernel32:KERNEL32.dll
 0001:000217dc       _QueryPerformanceCounter@4 100227dc f   kernel32:KERNEL32.dll
 0001:000217e2       _QueryPerformanceFrequency@4 100227e2 f   kernel32:KERNEL32.dll
 0001:000217e8       _Sleep@4                   100227e8 f   kernel32:KERNEL32.dll
 0001:000217ee       _GetCurrentThreadId@0      100227ee f   kernel32:KERNEL32.dll
 0001:000217f4       _LocalFree@4               100227f4 f   kernel32:KERNEL32.dll
 0001:000217fa       _FormatMessageA@28         100227fa f   kernel32:KERNEL32.dll
 0001:00021800       ?_Debug_message@std@@YAXPB_W0I@Z 10022800 f   msvcprtd:MSVCP120D.dll
 0001:00021806       ??0_Container_base12@std@@QAE@XZ 10022806 f   msvcprtd:MSVCP120D.dll
 0001:0002180c       ??1_Container_base12@std@@QAE@XZ 1002280c f   msvcprtd:MSVCP120D.dll
 0001:00021812       ?_Orphan_all@_Container_base12@std@@QAEXXZ 10022812 f   msvcprtd:MSVCP120D.dll
 0001:00021818       ?_Xbad_alloc@std@@YAXXZ    10022818 f   msvcprtd:MSVCP120D.dll
 0001:0002181e       ?_Xlength_error@std@@YAXPBD@Z 1002281e f   msvcprtd:MSVCP120D.dll
 0001:00021824       ?_Xout_of_range@std@@YAXPBD@Z 10022824 f   msvcprtd:MSVCP120D.dll
 0001:0002182a       ?_Syserror_map@std@@YAPBDH@Z 1002282a f   msvcprtd:MSVCP120D.dll
 0001:00021830       ?_Winerror_map@std@@YAPBDH@Z 10022830 f   msvcprtd:MSVCP120D.dll
 0001:00021836       ??0id@locale@std@@QAE@I@Z  10022836 f   msvcprtd:MSVCP120D.dll
 0001:00021840       ??_U@YAPAXI@Z              10022840 f   msvcprtd:newaop_s.obj
 0001:00021852       __purecall                 10022852 f   MSVCRTD:MSVCR120D.dll
 0001:00021858       ??2@YAPAXI@Z               10022858 f   MSVCRTD:MSVCR120D.dll
 0001:0002185e       ??3@YAXPAX@Z               1002285e f   MSVCRTD:MSVCR120D.dll
 0001:00021864       _memset                    10022864 f   MSVCRTD:MSVCR120D.dll
 0001:00021870       @_RTC_AllocaHelper@12      10022870 f   MSVCRTD:stack.obj
 0001:000218b0       @_RTC_CheckStackVars2@12   100228b0 f   MSVCRTD:stack.obj
 0001:00021990       @_RTC_CheckStackVars@8     10022990 f   MSVCRTD:stack.obj
 0001:000219f0       __RTC_CheckEsp             100229f0 f   MSVCRTD:stack.obj
 0001:00021a20       @__security_check_cookie@4 10022a20 f   MSVCRTD:secchk.obj
 0001:00021a30       __RTC_InitBase             10022a30 f   MSVCRTD:init.obj
 0001:00021a60       __RTC_Shutdown             10022a60 f   MSVCRTD:init.obj
 0001:00021a74       ___CxxFrameHandler3        10022a74 f   MSVCRTD:MSVCR120D.dll
 0001:00021a80       ??0type_info@@AAE@ABV0@@Z  10022a80 f   MSVCRTD:ti_inst.obj
 0001:00021aa0       ??4type_info@@AAEAAV0@ABV0@@Z 10022aa0 f   MSVCRTD:ti_inst.obj
 0001:00021ab0       ??_Etype_info@@UAEPAXI@Z   10022ab0 f i MSVCRTD:ti_inst.obj
 0001:00021b20       ___atonexitinit            10022b20 f   MSVCRTD:atonexit.obj
 0001:00021bd0       __onexit                   10022bd0 f   MSVCRTD:atonexit.obj
 0001:00021cd0       _atexit                    10022cd0 f   MSVCRTD:atonexit.obj
 0001:00021cfc       __hypot                    10022cfc f   MSVCRTD:MSVCR120D.dll
 0001:00021d02       _memcpy                    10022d02 f   MSVCRTD:MSVCR120D.dll
 0001:00021d08       _strlen                    10022d08 f   MSVCRTD:MSVCR120D.dll
 0001:00021d0e       _memmove                   10022d0e f   MSVCRTD:MSVCR120D.dll
 0001:00021d14       ??0exception@std@@QAE@ABQBD@Z 10022d14 f   MSVCRTD:MSVCR120D.dll
 0001:00021d1a       ??0exception@std@@QAE@ABV01@@Z 10022d1a f   MSVCRTD:MSVCR120D.dll
 0001:00021d20       ??1exception@std@@UAE@XZ   10022d20 f   MSVCRTD:MSVCR120D.dll
 0001:00021d26       ?what@exception@std@@UBEPBDXZ 10022d26 f   MSVCRTD:MSVCR120D.dll
 0001:00021d2c       __CxxThrowException@8      10022d2c f   MSVCRTD:MSVCR120D.dll
 0001:00021d40       __wassert                  10022d40 f   MSVCRTD:MSVCR120D.dll
 0001:00021d46       _free                      10022d46 f   MSVCRTD:MSVCR120D.dll
 0001:00021d4c       _malloc                    10022d4c f   MSVCRTD:MSVCR120D.dll
 0001:00021d52       ??0exception@std@@QAE@ABQBDH@Z 10022d52 f   MSVCRTD:MSVCR120D.dll
 0001:00021d60       ??_M@YGXPAXIHP6EX0@Z@Z     10022d60 f   MSVCRTD:ehvecdtr.obj
 0001:00021e40       ?__ArrayUnwind@@YGXPAXIHP6EX0@Z@Z 10022e40 f   MSVCRTD:ehvecdtr.obj
 0001:00021ed0       __alloca_probe_16          10022ed0 f   MSVCRTD:alloca16.obj
 0001:00021ee6       __alloca_probe_8           10022ee6     MSVCRTD:alloca16.obj
 0001:00021f00       ___raise_securityfailure   10022f00 f   MSVCRTD:gs_report.obj
 0001:00021f50       ___report_gsfailure        10022f50 f   MSVCRTD:gs_report.obj
 0001:00022060       ___report_rangecheckfailure 10023060 f   MSVCRTD:gs_report.obj
 0001:00022070       ___report_securityfailure  10023070 f   MSVCRTD:gs_report.obj
 0001:00022150       ___report_securityfailureEx 10023150 f   MSVCRTD:gs_report.obj
 0001:00022276       _exit                      10023276 f   MSVCRTD:MSVCR120D.dll
 0001:0002227c       __beginthreadex            1002327c f   MSVCRTD:MSVCR120D.dll
 0001:00022282       ___iob_func                10023282 f   MSVCRTD:MSVCR120D.dll
 0001:00022288       _fprintf                   10023288 f   MSVCRTD:MSVCR120D.dll
 0001:0002228e       ___RTtypeid                1002328e f   MSVCRTD:MSVCR120D.dll
 0001:00022294       _strncpy                   10023294 f   MSVCRTD:MSVCR120D.dll
 0001:0002229a       ??0exception@std@@QAE@XZ   1002329a f   MSVCRTD:MSVCR120D.dll
 0001:000222a0       ?__ExceptionPtrCreate@@YAXPAX@Z 100232a0 f   MSVCRTD:MSVCR120D.dll
 0001:000222a6       ?__ExceptionPtrDestroy@@YAXPAX@Z 100232a6 f   MSVCRTD:MSVCR120D.dll
 0001:000222ac       ?__ExceptionPtrCopy@@YAXPAXPBX@Z 100232ac f   MSVCRTD:MSVCR120D.dll
 0001:000222b2       ?__ExceptionPtrCurrentException@@YAXPAX@Z 100232b2 f   MSVCRTD:MSVCR120D.dll
 0001:000222b8       ?__ExceptionPtrRethrow@@YAXPBX@Z 100232b8 f   MSVCRTD:MSVCR120D.dll
 0001:000222be       ?__ExceptionPtrCopyException@@YAXPAXPBX1@Z 100232be f   MSVCRTD:MSVCR120D.dll
 0001:000222c4       ??_V@YAXPAX@Z              100232c4 f   MSVCRTD:MSVCR120D.dll
 0001:000222ca       ?name@type_info@@QBEPBDPAU__type_info_node@@@Z 100232ca f   MSVCRTD:MSVCR120D.dll
 0001:000222d0       ___clean_type_info_names   100232d0 f   MSVCRTD:tncleanup.obj
 0001:000222e2       _getenv                    100232e2 f   MSVCRTD:MSVCR120D.dll
 0001:000222e8       _fputs                     100232e8 f   MSVCRTD:MSVCR120D.dll
 0001:000222ee       _sprintf                   100232ee f   MSVCRTD:MSVCR120D.dll
 0001:000222f4       _strcmp                    100232f4 f   MSVCRTD:MSVCR120D.dll
 0001:000222fa       _strchr                    100232fa f   MSVCRTD:MSVCR120D.dll
 0001:00022300       _strerror                  10023300 f   MSVCRTD:MSVCR120D.dll
 0001:00022306       __CrtDbgReport             10023306 f   MSVCRTD:MSVCR120D.dll
 0001:0002230c       __errno                    1002330c f   MSVCRTD:MSVCR120D.dll
 0001:00022320       __ftoui3                   10023320 f   MSVCRTD:ftol3.obj
 0001:0002232f       __ftoul3                   1002332f f   MSVCRTD:ftol3.obj
 0001:0002233e       __ftol3                    1002333e f   MSVCRTD:ftol3.obj
 0001:0002234b       __ftol3_NaN                1002334b f   MSVCRTD:ftol3.obj
 0001:00022363       __ftol3_work               10023363 f   MSVCRTD:ftol3.obj
 0001:000223e9       __ftol3_common             100233e9 f   MSVCRTD:ftol3.obj
 0001:000224ab       __ftol3_arg_error          100234ab f   MSVCRTD:ftol3.obj
 0001:000224bd       __ftol3_except             100234bd f   MSVCRTD:ftol3.obj
 0001:00022501       __dtoui3                   10023501 f   MSVCRTD:ftol3.obj
 0001:00022510       __dtoul3                   10023510 f   MSVCRTD:ftol3.obj
 0001:0002251f       __dtol3                    1002351f f   MSVCRTD:ftol3.obj
 0001:0002252c       __dtol3_NaN                1002352c f   MSVCRTD:ftol3.obj
 0001:00022549       __dtol3_work               10023549 f   MSVCRTD:ftol3.obj
 0001:0002262e       __ultod3                   1002362e f   MSVCRTD:ftol3.obj
 0001:000226bf       __ltod3                    100236bf f   MSVCRTD:ftol3.obj
 0001:00022770       __CRT_INIT@12              10023770 f   MSVCRTD:crtdll.obj
 0001:00022a50       __DllMainCRTStartup@12     10023a50 f   MSVCRTD:crtdll.obj
 0001:00022d90       ?_RTC_AllocaFailure@@YAXPAXPAU_RTC_ALLOCA_NODE@@H@Z 10023d90 f   MSVCRTD:error.obj
 0001:00022f10       ?_RTC_Failure@@YAXPAXH@Z   10023f10 f   MSVCRTD:error.obj
 0001:00022f60       ?_RTC_StackFailure@@YAXPAXPBD@Z 10023f60 f   MSVCRTD:error.obj
 0001:000232e0       __RTC_UninitUse            100242e0 f   MSVCRTD:error.obj
 0001:000233d0       ?_RTC_GetErrorFunc@@YAP6AHHPBDH00ZZPBX@Z 100243d0 f   MSVCRTD:userapi.obj
 0001:000233e0       ?_RTC_GetErrorFuncW@@YAP6AHHPB_WH00ZZPBX@Z 100243e0 f   MSVCRTD:userapi.obj
 0001:000233f0       __RTC_GetErrDesc           100243f0 f   MSVCRTD:userapi.obj
 0001:00023410       __RTC_NumErrors            10024410 f   MSVCRTD:userapi.obj
 0001:00023420       __RTC_SetErrorFunc         10024420 f   MSVCRTD:userapi.obj
 0001:00023440       __RTC_SetErrorFuncW        10024440 f   MSVCRTD:userapi.obj
 0001:00023460       __RTC_SetErrorType         10024460 f   MSVCRTD:userapi.obj
 0001:00023484       __CRT_RTC_INITW            10024484 f   MSVCRTD:MSVCR120D.dll
 0001:0002348a       ??1type_info@@UAE@XZ       1002448a f   MSVCRTD:MSVCR120D.dll
 0001:00023490       __lock                     10024490 f   MSVCRTD:MSVCR120D.dll
 0001:00023496       __unlock                   10024496 f   MSVCRTD:MSVCR120D.dll
 0001:0002349c       __CrtDbgReportW            1002449c f   MSVCRTD:MSVCR120D.dll
 0001:000234a2       __calloc_dbg               100244a2 f   MSVCRTD:MSVCR120D.dll
 0001:000234a8       ___dllonexit               100244a8 f   MSVCRTD:MSVCR120D.dll
 0001:000234b0       __except_handler4          100244b0 f   MSVCRTD:chandler4gs.obj
 0001:000234d8       ?terminate@@YAXXZ          100244d8 f   MSVCRTD:MSVCR120D.dll
 0001:000234e0       __chkstk                   100244e0 f   MSVCRTD:chkstk.obj
 0001:000234e0       __alloca_probe             100244e0 f   MSVCRTD:chkstk.obj
 0001:0002350c       __crt_debugger_hook        1002450c f   MSVCRTD:MSVCR120D.dll
 0001:00023512       ___crtUnhandledException   10024512 f   MSVCRTD:MSVCR120D.dll
 0001:00023518       ___crtTerminateProcess     10024518 f   MSVCRTD:MSVCR120D.dll
 0001:0002351e       ___clean_type_info_names_internal 1002451e f   MSVCRTD:MSVCR120D.dll
 0001:00023524       __vsnprintf                10024524 f   MSVCRTD:MSVCR120D.dll
 0001:0002352a       __except1                  1002452a f   MSVCRTD:MSVCR120D.dll
 0001:00023530       ___CppXcptFilter           10024530 f   MSVCRTD:MSVCR120D.dll
 0001:00023536       __amsg_exit                10024536 f   MSVCRTD:MSVCR120D.dll
 0001:0002353c       __malloc_dbg               1002453c f   MSVCRTD:MSVCR120D.dll
 0001:00023542       __free_dbg                 10024542 f   MSVCRTD:MSVCR120D.dll
 0001:00023548       __CrtSetCheckCount         10024548 f   MSVCRTD:MSVCR120D.dll
 0001:00023550       __FindPESection            10024550 f   MSVCRTD:pesect.obj
 0001:000235d0       __IsNonwritableInCurrentImage 100245d0 f   MSVCRTD:pesect.obj
 0001:00023700       __ValidateImageBase        10024700 f   MSVCRTD:pesect.obj
 0001:00023760       ___security_init_cookie    10024760 f   MSVCRTD:gs_support.obj
 0001:00023840       __RTC_Initialize           10024840 f   MSVCRTD:initsect.obj
 0001:00023870       __RTC_Terminate            10024870 f   MSVCRTD:initsect.obj
 0001:00023896       __initterm                 10024896 f   MSVCRTD:MSVCR120D.dll
 0001:0002389c       __initterm_e               1002489c f   MSVCRTD:MSVCR120D.dll
 0001:00023cf0       ?_RTC_GetSrcLine@@YAHPAEPA_WKPAH1K@Z 10024cf0 f   MSVCRTD:pdblkup.obj
 0001:00023f9e       __except_handler4_common   10024f9e f   MSVCRTD:MSVCR120D.dll
 0001:00023fa4       _wcscpy_s                  10024fa4 f   MSVCRTD:MSVCR120D.dll
 0001:00023faa       __wmakepath_s              10024faa f   MSVCRTD:MSVCR120D.dll
 0001:00023fb0       __wsplitpath_s             10024fb0 f   MSVCRTD:MSVCR120D.dll
 0001:00023fb6       _EncodePointer@4           10024fb6 f   kernel32:KERNEL32.dll
 0001:00023fbc       _DecodePointer@4           10024fbc f   kernel32:KERNEL32.dll
 0001:00023fc2       _IsDebuggerPresent@0       10024fc2 f   kernel32:KERNEL32.dll
 0001:00023fc8       _IsProcessorFeaturePresent@4 10024fc8 f   kernel32:KERNEL32.dll
 0001:00023fce       _RaiseException@16         10024fce f   kernel32:KERNEL32.dll
 0001:00023fd4       _LoadLibraryExW@12         10024fd4 f   kernel32:KERNEL32.dll
 0001:00023fda       _MultiByteToWideChar@24    10024fda f   kernel32:KERNEL32.dll
 0001:00023fe0       _WideCharToMultiByte@32    10024fe0 f   kernel32:KERNEL32.dll
 0001:00023fe6       _GetCurrentProcessId@0     10024fe6 f   kernel32:KERNEL32.dll
 0001:00023fec       _GetSystemTimeAsFileTime@4 10024fec f   kernel32:KERNEL32.dll
 0001:00023ff2       _HeapAlloc@12              10024ff2 f   kernel32:KERNEL32.dll
 0001:00023ff8       _HeapFree@12               10024ff8 f   kernel32:KERNEL32.dll
 0001:00023ffe       _GetProcessHeap@0          10024ffe f   kernel32:KERNEL32.dll
 0001:00024004       _VirtualQuery@12           10025004 f   kernel32:KERNEL32.dll
 0001:0002400a       _GetModuleFileNameW@12     1002500a f   kernel32:KERNEL32.dll
 0001:00024010       _GetModuleHandleW@4        10025010 f   kernel32:KERNEL32.dll
 0002:00000000       __imp__SwitchToThread@0    10026000     kernel32:KERNEL32.dll
 0002:00000004       __imp__CloseHandle@4       10026004     kernel32:KERNEL32.dll
 0002:00000008       __imp__InitializeCriticalSection@4 10026008     kernel32:KERNEL32.dll
 0002:0000000c       __imp__EnterCriticalSection@4 1002600c     kernel32:KERNEL32.dll
 0002:00000010       __imp__LeaveCriticalSection@4 10026010     kernel32:KERNEL32.dll
 0002:00000014       __imp__DeleteCriticalSection@4 10026014     kernel32:KERNEL32.dll
 0002:00000018       __imp__SetEvent@4          10026018     kernel32:KERNEL32.dll
 0002:0000001c       __imp__ResetEvent@4        1002601c     kernel32:KERNEL32.dll
 0002:00000020       __imp__WaitForSingleObject@8 10026020     kernel32:KERNEL32.dll
 0002:00000024       __imp__CreateEventW@16     10026024     kernel32:KERNEL32.dll
 0002:00000028       __imp__SetErrorMode@4      10026028     kernel32:KERNEL32.dll
 0002:0000002c       __imp__FreeLibrary@4       1002602c     kernel32:KERNEL32.dll
 0002:00000030       __imp__GetModuleHandleA@4  10026030     kernel32:KERNEL32.dll
 0002:00000034       __imp__GetProcAddress@8    10026034     kernel32:KERNEL32.dll
 0002:00000038       __imp__LoadLibraryA@4      10026038     kernel32:KERNEL32.dll
 0002:0000003c       __imp__GetEnvironmentVariableA@12 1002603c     kernel32:KERNEL32.dll
 0002:00000040       __imp__TryEnterCriticalSection@4 10026040     kernel32:KERNEL32.dll
 0002:00000044       __imp__CreateEventA@16     10026044     kernel32:KERNEL32.dll
 0002:00000048       __imp__TlsAlloc@0          10026048     kernel32:KERNEL32.dll
 0002:0000004c       __imp__TlsGetValue@4       1002604c     kernel32:KERNEL32.dll
 0002:00000050       __imp__TlsSetValue@8       10026050     kernel32:KERNEL32.dll
 0002:00000054       __imp__TlsFree@4           10026054     kernel32:KERNEL32.dll
 0002:00000058       __imp__GetSystemInfo@4     10026058     kernel32:KERNEL32.dll
 0002:0000005c       __imp__GetLastError@0      1002605c     kernel32:KERNEL32.dll
 0002:00000060       __imp__QueryPerformanceCounter@4 10026060     kernel32:KERNEL32.dll
 0002:00000064       __imp__QueryPerformanceFrequency@4 10026064     kernel32:KERNEL32.dll
 0002:00000068       __imp__Sleep@4             10026068     kernel32:KERNEL32.dll
 0002:0000006c       __imp__GetCurrentThreadId@0 1002606c     kernel32:KERNEL32.dll
 0002:00000070       __imp__LocalFree@4         10026070     kernel32:KERNEL32.dll
 0002:00000074       __imp__FormatMessageA@28   10026074     kernel32:KERNEL32.dll
 0002:00000078       __imp__GetModuleFileNameW@12 10026078     kernel32:KERNEL32.dll
 0002:0000007c       __imp__VirtualQuery@12     1002607c     kernel32:KERNEL32.dll
 0002:00000080       __imp__GetProcessHeap@0    10026080     kernel32:KERNEL32.dll
 0002:00000084       __imp__HeapFree@12         10026084     kernel32:KERNEL32.dll
 0002:00000088       __imp__HeapAlloc@12        10026088     kernel32:KERNEL32.dll
 0002:0000008c       __imp__GetSystemTimeAsFileTime@4 1002608c     kernel32:KERNEL32.dll
 0002:00000090       __imp__GetCurrentProcessId@0 10026090     kernel32:KERNEL32.dll
 0002:00000094       __imp__WideCharToMultiByte@32 10026094     kernel32:KERNEL32.dll
 0002:00000098       __imp__MultiByteToWideChar@24 10026098     kernel32:KERNEL32.dll
 0002:0000009c       __imp__LoadLibraryExW@12   1002609c     kernel32:KERNEL32.dll
 0002:000000a0       __imp__RaiseException@16   100260a0     kernel32:KERNEL32.dll
 0002:000000a4       __imp__IsProcessorFeaturePresent@4 100260a4     kernel32:KERNEL32.dll
 0002:000000a8       __imp__IsDebuggerPresent@0 100260a8     kernel32:KERNEL32.dll
 0002:000000ac       __imp__DecodePointer@4     100260ac     kernel32:KERNEL32.dll
 0002:000000b0       __imp__EncodePointer@4     100260b0     kernel32:KERNEL32.dll
 0002:000000b4       __imp__GetModuleHandleW@4  100260b4     kernel32:KERNEL32.dll
 0002:000000b8       \177KERNEL32_NULL_THUNK_DATA 100260b8     kernel32:KERNEL32.dll
 0002:000000bc       __imp_?_Debug_message@std@@YAXPB_W0I@Z 100260bc     msvcprtd:MSVCP120D.dll
 0002:000000c0       __imp_??1_Container_base12@std@@QAE@XZ 100260c0     msvcprtd:MSVCP120D.dll
 0002:000000c4       __imp_?_Orphan_all@_Container_base12@std@@QAEXXZ 100260c4     msvcprtd:MSVCP120D.dll
 0002:000000c8       __imp_?_Xbad_alloc@std@@YAXXZ 100260c8     msvcprtd:MSVCP120D.dll
 0002:000000cc       __imp_?_Xlength_error@std@@YAXPBD@Z 100260cc     msvcprtd:MSVCP120D.dll
 0002:000000d0       __imp_?_Xout_of_range@std@@YAXPBD@Z 100260d0     msvcprtd:MSVCP120D.dll
 0002:000000d4       __imp_?_Syserror_map@std@@YAPBDH@Z 100260d4     msvcprtd:MSVCP120D.dll
 0002:000000d8       __imp_?_Winerror_map@std@@YAPBDH@Z 100260d8     msvcprtd:MSVCP120D.dll
 0002:000000dc       __imp_??0id@locale@std@@QAE@I@Z 100260dc     msvcprtd:MSVCP120D.dll
 0002:000000e0       __imp_??0_Container_base12@std@@QAE@XZ 100260e0     msvcprtd:MSVCP120D.dll
 0002:000000e4       \177MSVCP120D_NULL_THUNK_DATA 100260e4     msvcprtd:MSVCP120D.dll
 0002:000000e8       __imp__malloc              100260e8     MSVCRTD:MSVCR120D.dll
 0002:000000ec       __imp_??0exception@std@@QAE@ABQBDH@Z 100260ec     MSVCRTD:MSVCR120D.dll
 0002:000000f0       __imp__exit                100260f0     MSVCRTD:MSVCR120D.dll
 0002:000000f4       __imp___beginthreadex      100260f4     MSVCRTD:MSVCR120D.dll
 0002:000000f8       __imp____iob_func          100260f8     MSVCRTD:MSVCR120D.dll
 0002:000000fc       __imp____CxxFrameHandler3  100260fc     MSVCRTD:MSVCR120D.dll
 0002:00000100       __imp____RTtypeid          10026100     MSVCRTD:MSVCR120D.dll
 0002:00000104       __imp__strncpy             10026104     MSVCRTD:MSVCR120D.dll
 0002:00000108       __imp_??0exception@std@@QAE@XZ 10026108     MSVCRTD:MSVCR120D.dll
 0002:0000010c       __imp_?__ExceptionPtrCreate@@YAXPAX@Z 1002610c     MSVCRTD:MSVCR120D.dll
 0002:00000110       __imp_?__ExceptionPtrDestroy@@YAXPAX@Z 10026110     MSVCRTD:MSVCR120D.dll
 0002:00000114       __imp_?__ExceptionPtrCopy@@YAXPAXPBX@Z 10026114     MSVCRTD:MSVCR120D.dll
 0002:00000118       __imp_?__ExceptionPtrCurrentException@@YAXPAX@Z 10026118     MSVCRTD:MSVCR120D.dll
 0002:0000011c       __imp_?__ExceptionPtrRethrow@@YAXPBX@Z 1002611c     MSVCRTD:MSVCR120D.dll
 0002:00000120       __imp_?__ExceptionPtrCopyException@@YAXPAXPBX1@Z 10026120     MSVCRTD:MSVCR120D.dll
 0002:00000124       __imp_??_V@YAXPAX@Z        10026124     MSVCRTD:MSVCR120D.dll
 0002:00000128       __imp_?name@type_info@@QBEPBDPAU__type_info_node@@@Z 10026128     MSVCRTD:MSVCR120D.dll
 0002:0000012c       __imp__getenv              1002612c     MSVCRTD:MSVCR120D.dll
 0002:00000130       __imp__fputs               10026130     MSVCRTD:MSVCR120D.dll
 0002:00000134       __imp__sprintf             10026134     MSVCRTD:MSVCR120D.dll
 0002:00000138       __imp__strcmp              10026138     MSVCRTD:MSVCR120D.dll
 0002:0000013c       __imp__strchr              1002613c     MSVCRTD:MSVCR120D.dll
 0002:00000140       __imp__strerror            10026140     MSVCRTD:MSVCR120D.dll
 0002:00000144       __imp___CrtDbgReport       10026144     MSVCRTD:MSVCR120D.dll
 0002:00000148       __imp___errno              10026148     MSVCRTD:MSVCR120D.dll
 0002:0000014c       __imp___CRT_RTC_INITW      1002614c     MSVCRTD:MSVCR120D.dll
 0002:00000150       __imp_??1type_info@@UAE@XZ 10026150     MSVCRTD:MSVCR120D.dll
 0002:00000154       __imp__free                10026154     MSVCRTD:MSVCR120D.dll
 0002:00000158       __imp___unlock             10026158     MSVCRTD:MSVCR120D.dll
 0002:0000015c       __imp___CrtDbgReportW      1002615c     MSVCRTD:MSVCR120D.dll
 0002:00000160       __imp___calloc_dbg         10026160     MSVCRTD:MSVCR120D.dll
 0002:00000164       __imp____dllonexit         10026164     MSVCRTD:MSVCR120D.dll
 0002:00000168       __imp___onexit             10026168     MSVCRTD:MSVCR120D.dll
 0002:0000016c       __imp_?terminate@@YAXXZ    1002616c     MSVCRTD:MSVCR120D.dll
 0002:00000170       __imp___crt_debugger_hook  10026170     MSVCRTD:MSVCR120D.dll
 0002:00000174       __imp____crtUnhandledException 10026174     MSVCRTD:MSVCR120D.dll
 0002:00000178       __imp____crtTerminateProcess 10026178     MSVCRTD:MSVCR120D.dll
 0002:0000017c       __imp____clean_type_info_names_internal 1002617c     MSVCRTD:MSVCR120D.dll
 0002:00000180       __imp__vsnprintf           10026180     MSVCRTD:MSVCR120D.dll
 0002:00000180       __imp___vsnprintf          10026180     MSVCRTD:MSVCR120D.dll
 0002:00000184       __imp___except1            10026184     MSVCRTD:MSVCR120D.dll
 0002:00000188       __imp____CppXcptFilter     10026188     MSVCRTD:MSVCR120D.dll
 0002:0000018c       __imp___amsg_exit          1002618c     MSVCRTD:MSVCR120D.dll
 0002:00000190       __imp___malloc_dbg         10026190     MSVCRTD:MSVCR120D.dll
 0002:00000194       __imp___free_dbg           10026194     MSVCRTD:MSVCR120D.dll
 0002:00000198       __imp___CrtSetCheckCount   10026198     MSVCRTD:MSVCR120D.dll
 0002:0000019c       __imp___initterm           1002619c     MSVCRTD:MSVCR120D.dll
 0002:000001a0       __imp___initterm_e         100261a0     MSVCRTD:MSVCR120D.dll
 0002:000001a4       __imp___except_handler4_common 100261a4     MSVCRTD:MSVCR120D.dll
 0002:000001a8       __imp__wcscpy_s            100261a8     MSVCRTD:MSVCR120D.dll
 0002:000001ac       __imp___wmakepath_s        100261ac     MSVCRTD:MSVCR120D.dll
 0002:000001b0       __imp___wsplitpath_s       100261b0     MSVCRTD:MSVCR120D.dll
 0002:000001b4       __imp__memset              100261b4     MSVCRTD:MSVCR120D.dll
 0002:000001b8       __imp_??3@YAXPAX@Z         100261b8     MSVCRTD:MSVCR120D.dll
 0002:000001bc       __imp_??2@YAPAXI@Z         100261bc     MSVCRTD:MSVCR120D.dll
 0002:000001c0       __imp___purecall           100261c0     MSVCRTD:MSVCR120D.dll
 0002:000001c4       __imp___wassert            100261c4     MSVCRTD:MSVCR120D.dll
 0002:000001c8       __imp___CxxThrowException@8 100261c8     MSVCRTD:MSVCR120D.dll
 0002:000001cc       __imp_?what@exception@std@@UBEPBDXZ 100261cc     MSVCRTD:MSVCR120D.dll
 0002:000001d0       __imp_??1exception@std@@UAE@XZ 100261d0     MSVCRTD:MSVCR120D.dll
 0002:000001d4       __imp_??0exception@std@@QAE@ABV01@@Z 100261d4     MSVCRTD:MSVCR120D.dll
 0002:000001d8       __imp_??0exception@std@@QAE@ABQBD@Z 100261d8     MSVCRTD:MSVCR120D.dll
 0002:000001dc       __imp__memmove             100261dc     MSVCRTD:MSVCR120D.dll
 0002:000001e0       __imp__strlen              100261e0     MSVCRTD:MSVCR120D.dll
 0002:000001e4       __imp__memcpy              100261e4     MSVCRTD:MSVCR120D.dll
 0002:000001e8       __imp___lock               100261e8     MSVCRTD:MSVCR120D.dll
 0002:000001ec       __imp___hypot              100261ec     MSVCRTD:MSVCR120D.dll
 0002:000001f0       __imp__fprintf             100261f0     MSVCRTD:MSVCR120D.dll
 0002:000001f4       \177MSVCR120D_NULL_THUNK_DATA 100261f4     MSVCRTD:MSVCR120D.dll
 0002:000001f8       ___xc_a                    100261f8     MSVCRTD:cinitexe.obj
 0002:00000258       ___xc_z                    10026258     MSVCRTD:cinitexe.obj
 0002:0000025c       ___xi_a                    1002625c     MSVCRTD:cinitexe.obj
 0002:00000268       ___xi_z                    10026268     MSVCRTD:cinitexe.obj
 0002:00000620       ??_7concurrent_queue_base@internal@tbb@@6B@ 10026620     concurrent_queue_v2.obj
 0002:0000062c       ??_C@_01JBBJJEPG@p?$AA@    1002662c     concurrent_queue_v2.obj
 0002:00000630       ??_C@_0CO@HEEIOKLJ@?4?4?2?4?4?2dep?2tbb?2src?2old?2concurrent@ 10026630     concurrent_queue_v2.obj
 0002:00000a6c       ??_7logic_error@std@@6B@   10026a6c     concurrent_vector_v2.obj
 0002:00000a78       ??_7length_error@std@@6B@  10026a78     concurrent_vector_v2.obj
 0002:00000a84       ??_7error_category@std@@6B@ 10026a84     concurrent_vector_v2.obj
 0002:00000aa0       ??_7_Generic_error_category@std@@6B@ 10026aa0     concurrent_vector_v2.obj
 0002:00000ab8       ??_C@_07DCLBNMLN@generic?$AA@ 10026ab8     concurrent_vector_v2.obj
 0002:00000ac0       ??_C@_0O@BFJCFAAK@unknown?5error?$AA@ 10026ac0     concurrent_vector_v2.obj
 0002:00000ad4       ??_7_Iostream_error_category@std@@6B@ 10026ad4     concurrent_vector_v2.obj
 0002:00000aec       ??_C@_08LLGCOLLL@iostream?$AA@ 10026aec     concurrent_vector_v2.obj
 0002:00000af8       ??_C@_0BG@PADBLCHM@iostream?5stream?5error?$AA@ 10026af8     concurrent_vector_v2.obj
 0002:00000b14       ??_7_System_error_category@std@@6B@ 10026b14     concurrent_vector_v2.obj
 0002:00000b2c       ??_C@_06FHFOAHML@system?$AA@ 10026b2c     concurrent_vector_v2.obj
 0002:00000b34       ??_C@_0CK@MILFLHAC@result?$DN?$DNsegment_base?$CIk?$CL1?$CJ?9segmen@ 10026b34     concurrent_vector_v2.obj
 0002:00000b60       ??_C@_0DG@LDJGFNCC@f?3?2classic?9wow?2dep?2tbb?2src?2old?2c@ 10026b60     concurrent_vector_v2.obj
 0002:00000b98       ??_C@_1IO@FEAPGJBD@?$AAC?$AA?3?$AA?2?$AAP?$AAr?$AAo?$AAg?$AAr?$AAa?$AAm?$AA?5?$AAF?$AAi?$AAl?$AAe?$AAs?$AA?5?$AA?$CI?$AAx?$AA8?$AA6?$AA?$CJ?$AA?2?$AAM?$AAi?$AAc?$AAr?$AAo?$AAs?$AAo?$AAf?$AAt@ 10026b98     concurrent_vector_v2.obj
 0002:00000c28       ??_C@_0BA@JFNIOLAK@string?5too?5long?$AA@ 10026c28     concurrent_vector_v2.obj
 0002:00000c38       ??_C@_0BI@CFPLBAOH@invalid?5string?5position?$AA@ 10026c38     concurrent_vector_v2.obj
 0002:00000c50       ??_C@_1CK@EOPGIILJ@?$AAi?$AAn?$AAv?$AAa?$AAl?$AAi?$AAd?$AA?5?$AAn?$AAu?$AAl?$AAl?$AA?5?$AAp?$AAo?$AAi?$AAn?$AAt?$AAe?$AAr?$AA?$AA@ 10026c50     concurrent_vector_v2.obj
 0002:00001928       ??_7bad_alloc@std@@6B@     10027928     cache_aligned_allocator.obj
 0002:00001930       ??_C@_0P@GHFPNOJB@bad?5allocation?$AA@ 10027930     cache_aligned_allocator.obj
 0002:00001e14       ??_7bad_last_alloc@tbb@@6B@ 10027e14     concurrent_queue.obj
 0002:00001e1c       ??_C@_0DB@EHGGIPPP@bad?5allocation?5in?5previous?5or?5co@ 10027e1c     concurrent_queue.obj
 0002:00001e54       ??_7concurrent_queue_base_v3@internal@tbb@@6B@ 10027e54     concurrent_queue.obj
 0002:00001e6c       ??_C@_0CL@KMBJEIPO@?4?4?2?4?4?2dep?2tbb?2src?2tbb?2concurrent@ 10027e6c     concurrent_queue.obj
 0002:00002308       ??_7out_of_range@std@@6B@  10028308     concurrent_vector.obj
 0002:00002314       ??_7runtime_error@std@@6B@ 10028314     concurrent_vector.obj
 0002:00002320       ??_7range_error@std@@6B@   10028320     concurrent_vector.obj
 0002:00002328       ??_C@_0CA@LKPOEAOC@should?5have?5been?5freed?5by?5clear?$AA@ 10028328     concurrent_vector.obj
 0002:00002348       ??_C@_0DA@BPLMLJFD@array?5?$DM?$DN?5internal?3?3vector_alloca@ 10028348     concurrent_vector.obj
 0002:00002378       ??_C@_0DH@MDMIAHN@F?3?2classic?9wow?2dep?2tbb?2include?2t@ 10028378     concurrent_vector.obj
 0002:000023b0       ??_C@_0CE@LLNKMEPC@concurrent?5operation?5during?5grow@ 100283b0     concurrent_vector.obj
 0002:000023d4       ??_C@_0DF@NEHJMGHG@s?$FLk?$FN?4array?5?$DM?$DN?5internal?3?3vector_a@ 100283d4     concurrent_vector.obj
 0002:0000240c       ??_C@_0CM@PJEAKBJB@?4?4?2?4?4?2dep?2tbb?2src?2tbb?2concurrent@ 1002840c     concurrent_vector.obj
 0002:00002438       ??_C@_0BA@LIFNIGJ@start?5?$DM?$DN?5finish?$AA@ 10028438     concurrent_vector.obj
 0002:00002448       ??_C@_0BH@JGMCJCL@first_block?5?$HM?$HM?5?$CBfinish?$AA@ 10028448     concurrent_vector.obj
 0002:00002460       ??_C@_0O@KKLAEBPF@base?5?$DM?$DN?5start?$AA@ 10028460     concurrent_vector.obj
 0002:00002470       ??_C@_0DA@LOIFDNLN@array?5?$DN?$DN?5internal?3?3vector_alloca@ 10028470     concurrent_vector.obj
 0002:0000258c       ___itt_state_err           1002858c     itt_notify_proxy.obj
 0002:00002590       ___itt_event_err           10028590     itt_notify_proxy.obj
 0002:00002594       ___itt_err                 10028594     itt_notify_proxy.obj
 0002:00002f00       ??_7task@tbb@@6B@          10028f00     pipeline.obj
 0002:00002f0c       ??_C@_0BF@FLEJEMAB@execute?5not?5running?$DP?$AA@ 10028f0c     pipeline.obj
 0002:00002f24       ??_C@_0BK@BLKDHJIK@prefix?$CI?$CJ?4state?$DN?$DNexecuting?$AA@ 10028f24     pipeline.obj
 0002:00002f40       ??_C@_0CK@OGMFAHJO@f?3?2classic?9wow?2dep?2tbb?2include?2t@ 10028f40     pipeline.obj
 0002:00002f70       ??_7filter@tbb@@6B@        10028f70     pipeline.obj
 0002:00002f80       ??_7pipeline@tbb@@6B@      10028f80     pipeline.obj
 0002:00002f84       ??_C@_05HIFJDKLD@array?$AA@ 10028f84     pipeline.obj
 0002:00002f8c       ??_C@_0CD@KDLCIGNA@?4?4?2?4?4?2dep?2tbb?2src?2tbb?2pipeline?4c@ 10028f8c     pipeline.obj
 0002:00002fb0       ??_C@_0CC@OJFIPBCH@?$CItokendiff_t?$CJ?$CItoken?9low_token?$CJ?$DO?$DN@ 10028fb0     pipeline.obj
 0002:00002fd8       ??_7stage_task@internal@tbb@@6B@ 10028fd8     pipeline.obj
 0002:00002fe4       ??_C@_0DC@FJGKNBB@Trying?5to?5finalize?5the?5task?5that@ 10028fe4     pipeline.obj
 0002:00003018       ??_C@_0P@PMGHPDFJ@is_cancelled?$CI?$CJ?$AA@ 10029018     pipeline.obj
 0002:0000302c       ??_7pipeline_root_task@internal@tbb@@6B@ 1002902c     pipeline.obj
 0002:00003038       ??_C@_0BI@HDJOOCC@filter?5is?5thread?9bound?$DP?$AA@ 10029038     pipeline.obj
 0002:00003050       ??_C@_0BM@EKBMLCCI@?$CBcurrent_filter?9?$DOis_bound?$CI?$CJ?$AA@ 10029050     pipeline.obj
 0002:0000306c       ??_C@_0CF@ELPNJBIG@previous?5filter?5is?5not?5thread?9bo@ 1002906c     pipeline.obj
 0002:00003094       ??_C@_0DE@MFDJBKCP@current_filter?9?$DOprev_filter_in_p@ 10029094     pipeline.obj
 0002:000030c8       ??_C@_0BI@GHAGBPIJ@my_pipeline?4filter_list?$AA@ 100290c8     pipeline.obj
 0002:00003200       ??_7versioned_object@rml@@6B@ 10029200     private_server.obj
 0002:00003208       ??_7server@rml@@6B@        10029208     private_server.obj
 0002:00003220       ??_7tbb_server@rml@internal@tbb@@6B@ 10029220     private_server.obj
 0002:00003238       ??_C@_0CP@ECLIENFE@thread_monitor?3?3launch?3?5_beginth@ 10029238     private_server.obj
 0002:0000326c       ??_7private_server@rml@internal@tbb@@6B@ 1002926c     private_server.obj
 0002:00003288       ??_C@_05LAPONLG@false?$AA@ 10029288     private_server.obj
 0002:00003290       ??_C@_0CJ@PLFFANLB@?4?4?2?4?4?2dep?2tbb?2src?2tbb?2private_se@ 10029290     private_server.obj
 0002:00008100       ??_7scheduler@internal@tbb@@6B@ 1002e100     task.obj
 0002:00008110       ??_C@_0CK@OCHGEDDB@F?3?2classic?9wow?2dep?2tbb?2include?2t@ 1002e110     task.obj
 0002:0000813c       ??_C@_0BH@CBDGOEGG@integer?5overflow?5error?$AA@ 1002e13c     task.obj
 0002:00008154       ??_C@_0BK@COEAHODA@ref_count?$DN?$DNint?$CIref_count?$CJ?$AA@ 1002e154     task.obj
 0002:00008174       ??_7empty_task@tbb@@6B@    1002e174     task.obj
 0002:00008184       ??_7tbb_exception@tbb@@6B@ 1002e184     task.obj
 0002:000081a0       ??_7captured_exception@tbb@@6B@ 1002e1a0     task.obj
 0002:000081b8       ??_C@_0DD@KMMNBJJJ@F?3?2classic?9wow?2dep?2tbb?2include?2t@ 1002e1b8     task.obj
 0002:000081ec       ??_C@_0BG@BEFAEEMA@holding?5mutex?5already?$AA@ 1002e1ec     task.obj
 0002:00008204       ??_C@_06MDKGKMGM@?$CBmutex?$AA@ 1002e204     task.obj
 0002:0000820c       ??_C@_0BF@MKDIKJIO@lock?5is?5not?5acquired?$AA@ 1002e20c     task.obj
 0002:00008224       ??_C@_05IGMCOAJJ@mutex?$AA@ 1002e224     task.obj
 0002:00008230       ??_7client@rml@@6B@        1002e230     task.obj
 0002:00008250       ??_7tbb_client@rml@internal@tbb@@6B@ 1002e250     task.obj
 0002:00008270       ??_C@_0CM@EJHAJDHF@?$CImy_first?$DN?$DNNULL?$CJ?$DN?$DN?$CI?$CIintptr?$CImy_la@ 1002e270     task.obj
 0002:0000829c       ??_C@_0BP@HKOJEGLH@?4?4?2?4?4?2dep?2tbb?2src?2tbb?2task?4cpp?$AA@ 1002e29c     task.obj
 0002:000082bc       ??_C@_0BB@CMGIDFKG@result?$DN?$DNmy_first?$AA@ 1002e2bc     task.obj
 0002:000082d0       ??_C@_08CPHFMEFM@?$CGt?$CB?$DNNULL?$AA@ 1002e2d0     task.obj
 0002:000082dc       ??_C@_0BP@MNEAKMKM@sizeof?$CI?$CKthis?$CJ?$DN?$DNNFS_MaxLineSize?$AA@ 1002e2dc     task.obj
 0002:000082fc       ??_C@_09OBBJHBOG@?$CBmy_first?$AA@ 1002e2fc     task.obj
 0002:00008308       ??_C@_08IBAGIHNA@?$CBmy_last?$AA@ 1002e308     task.obj
 0002:00008314       ??_C@_0M@KNJEEGAH@?$CBmy_is_idle?$AA@ 1002e314     task.obj
 0002:00008320       ??_C@_0BB@BPJHCKGA@already?5attached?$AA@ 1002e320     task.obj
 0002:00008334       ??_C@_0L@CLOICKAC@?$CBmy_putter?$AA@ 1002e334     task.obj
 0002:00008340       ??_C@_0N@IIPOOJBI@not?5attached?$AA@ 1002e340     task.obj
 0002:00008350       ??_C@_09OEPHKDIP@my_putter?$AA@ 1002e350     task.obj
 0002:0000835c       ??_C@_0DA@EJPFNHBC@attempt?5to?5redundantly?5mark?5mail@ 1002e35c     task.obj
 0002:0000838c       ??_C@_0BP@JDMDBFAC@my_putter?9?$DOmy_is_idle?5?$HM?$HM?5value?$AA@ 1002e38c     task.obj
 0002:000083ac       ??_C@_0CL@CLBOOMPC@?$CBmy_putter?5?$HM?$HM?5my_putter?9?$DOmy_is_i@ 1002e3ac     task.obj
 0002:000083dc       ??_7UnpaddedArenaPrefix@internal@tbb@@6B@ 1002e3dc     task.obj
 0002:00008400       ??_7ArenaPrefix@internal@tbb@@6B@ 1002e400     task.obj
 0002:00008420       ??_C@_0BM@PJIJBKNP@id?5must?5be?5positive?5integer?$AA@ 1002e420     task.obj
 0002:0000843c       ??_C@_04GEJGKJHB@0?$DMid?$AA@ 1002e43c     task.obj
 0002:00008444       ??_C@_0BB@CPNLGAJL@id?5out?5of?5bounds?$AA@ 1002e444     task.obj
 0002:00008458       ??_C@_0BP@NCOGOIFC@id?5?$DM?$DN?5prefix?$CI?$CJ?4number_of_slots?$AA@ 1002e458     task.obj
 0002:00008478       ??_C@_0CC@NEIPKDFG@warning?3?5leaked?5?$CFld?5task?5objects@ 1002e478     task.obj
 0002:0000849c       ??_C@_0CP@KEJKBAPN@removed?5__TBB_InitOnce?5ref?5that?5@ 1002e49c     task.obj
 0002:000084cc       ??_C@_04DEDOIBBM@k?$DO?$DN0?$AA@ 1002e4cc     task.obj
 0002:000084d4       ??_C@_0CG@EICLJBGO@TBB?5failed?5to?5initialize?5TLS?5sto@ 1002e4d4     task.obj
 0002:00008500       ??_C@_0EA@MMOLKHOH@TBB?5is?5unloaded?5while?5tbb?3?3task_@ 1002e500     task.obj
 0002:00008540       ??_C@_0CC@KLGLMHDD@TBB?5failed?5to?5destroy?5TLS?5storag@ 1002e540     task.obj
 0002:00008564       ??_C@_0CB@FEMODELJ@a?9?$DOprefix?$CI?$CJ?4number_of_masters?$DN?$DN1@ 1002e564     task.obj
 0002:00008588       ??_C@_09LOGEGEGJ@?$CBtheArena?$AA@ 1002e588     task.obj
 0002:00008594       ??_C@_0BE@JDFNNFFI@theArena?5is?5missing?$AA@ 1002e594     task.obj
 0002:000085a8       ??_C@_01MCMALHOG@a?$AA@    1002e5a8     task.obj
 0002:000085ac       ??_C@_0DG@PJFNMABF@thread?5did?5not?5activate?5a?5task_s@ 1002e5ac     task.obj
 0002:000085e4       ??_C@_08BLHIHAFP@theArena?$AA@ 1002e5e4     task.obj
 0002:000085f4       ??_7GenericScheduler@internal@tbb@@6B@ 1002e5f4     task.obj
 0002:00008604       ??_C@_04OIAIIDOD@id?$DO0?$AA@ 1002e604     task.obj
 0002:0000860c       ??_C@_0BO@MBIGMJED@attempt?5to?5free?5NULL?5TaskPool?$AA@ 1002e60c     task.obj
 0002:0000862c       ??_C@_04CJIJKHMO@pool?$AA@ 1002e62c     task.obj
 0002:00008634       ??_C@_0BC@LNFJEPJC@?$CBs?9?$DOis_registered?$AA@ 1002e634     task.obj
 0002:00008648       ??_C@_0DB@PGLDPMDE@attempt?5to?5unregister?5a?5wrong?5sc@ 1002e648     task.obj
 0002:0000867c       ??_C@_0BA@GEKIAMOK@theTLS?4get?$CI?$CJ?$DN?$DNs?$AA@ 1002e67c     task.obj
 0002:0000868c       ??_C@_0CA@BMNKDCNF@free?5list?5of?5tasks?5is?5corrupted?$AA@ 1002e68c     task.obj
 0002:000086ac       ??_C@_0BI@HPIBDGJC@t?9?$DOstate?$CI?$CJ?$DN?$DNtask?3?3freed?$AA@ 1002e6ac     task.obj
 0002:000086c4       ??_C@_0CH@LMANADEL@another?5thread?5emptied?5the?5retur@ 1002e6c4     task.obj
 0002:000086ec       ??_C@_01PFHFFBPC@t?$AA@    1002e6ec     task.obj
 0002:000086f0       ??_C@_0CD@HHALKJKJ@task?5returned?5to?5wrong?5return_li@ 1002e6f0     task.obj
 0002:00008714       ??_C@_0BJ@EMAJPKLF@t?9?$DOprefix?$CI?$CJ?4origin?$DN?$DNthis?$AA@ 1002e714     task.obj
 0002:00008734       ??_7?$CustomScheduler@UDefaultSchedulerTraits@internal@tbb@@@internal@tbb@@6B@ 1002e734     task.obj
 0002:00008748       ??_7?$CustomScheduler@UIntelSchedulerTraits@internal@tbb@@@internal@tbb@@6B@ 1002e748     task.obj
 0002:00008758       ??_C@_0BJ@EBNAOIPB@invalid?5arena?5slot?5index?$AA@ 1002e758     task.obj
 0002:00008774       ??_C@_0CI@IEEALKPI@arena_slot?5?$DN?$DN?5arena?9?$DOslot?5?$CL?5aren@ 1002e774     task.obj
 0002:0000879c       ??_C@_0BI@DDHEOPJ@slot?5ownership?5corrupt?$DP?$AA@ 1002e79c     task.obj
 0002:000087b4       ??_C@_0DD@JDNMOKMH@tp?5?$DN?$DN?5LockedTaskPool?5?$HM?$HM?5tp?5?$DN?$DN?5du@ 1002e7b4     task.obj
 0002:000087e8       ??_C@_0BO@BPAKPMEK@not?5really?5acquired?5task?5pool?$AA@ 1002e7e8     task.obj
 0002:00008808       ??_C@_0CI@HIJEIOCD@arena_slot?9?$DOtask_pool?5?$DN?$DN?5LockedT@ 1002e808     task.obj
 0002:00008830       ??_C@_0BE@OBDANAJJ@we?5are?5not?5in?5arena?$AA@ 1002e830     task.obj
 0002:00008844       ??_C@_0L@DDEIDLBE@arena_slot?$AA@ 1002e844     task.obj
 0002:00008850       ??_C@_0BJ@KAKOPABB@arena?5slot?5is?5not?5locked?$AA@ 1002e850     task.obj
 0002:0000886c       ??_C@_0CG@DLNDAJCB@not?5really?5locked?5victim?8s?5task?5@ 1002e86c     task.obj
 0002:00008898       ??_C@_0HM@OCDHPPJJ@victim_task_pool?5?$DN?$DN?5EmptyTaskPoo@ 1002e898     task.obj
 0002:00008914       ??_C@_0CA@KPJJIGGI@empty?5victim?5arena?5slot?5pointer?$AA@ 1002e914     task.obj
 0002:00008934       ??_C@_0BC@FDIBDHCF@victim_arena_slot?$AA@ 1002e934     task.obj
 0002:00008948       ??_C@_0CA@PNKDECOB@victim?5arena?5slot?5is?5not?5locked?$AA@ 1002e948     task.obj
 0002:00008968       ??_C@_0CP@JLFHDLPC@victim_arena_slot?9?$DOtask_pool?5?$DN?$DN?5@ 1002e968     task.obj
 0002:00008998       ??_C@_0DH@EOPIIHGK@attempt?5to?5spawn?5task?5that?5is?5no@ 1002e998     task.obj
 0002:000089d0       ??_C@_0BM@PKOLENLD@t?9?$DOstate?$CI?$CJ?$DN?$DNtask?3?3allocated?$AA@ 1002e9d0     task.obj
 0002:000089ec       ??_C@_0DF@OEIDPLN@attempt?5to?5spawn?5task?5whose?5pare@ 1002e9ec     task.obj
 0002:00008a24       ??_C@_0N@GFHEPNGJ@ref_count?$DO?$DN0?$AA@ 1002ea24     task.obj
 0002:00008a38       ??_C@_0FB@KLFGCIGA@attempt?5to?5spawn?5task?5whose?5pare@ 1002ea38     task.obj
 0002:00008a8c       ??_C@_0N@GNAOLKKA@ref_count?$CB?$DN0?$AA@ 1002ea8c     task.obj
 0002:00008a9c       ??_C@_0DD@DBDAGODG@backwards?5compatibility?5to?5TBB?52@ 1002ea9c     task.obj
 0002:00008ad0       ??_C@_0CJ@OADHCJIC@dst_thread?5?$DN?$DN?50?5?$HM?$HM?5is_version_3_@ 1002ead0     task.obj
 0002:00008afc       ??_C@_0N@NHAPNGAM@not?5in?5arena?$AA@ 1002eafc     task.obj
 0002:00008b0c       ??_C@_0BB@JOHMFCDC@my_affinity_id?$DO0?$AA@ 1002eb0c     task.obj
 0002:00008b20       ??_C@_0DH@EFGJHOII@tat?$DN?$DNtask_proxy?3?3mailbox_bit?5?$HM?$HM?5@ 1002eb20     task.obj
 0002:00008b58       ??_C@_0CI@FDCOFNCM@tp?9?$DOprefix?$CI?$CJ?4extra_state?$DN?$DNes_tas@ 1002eb58     task.obj
 0002:00008b80       ??_C@_0CH@CCCNIDFA@tp?9?$DOtask_and_tag?$DN?$DNtask_proxy?3?3po@ 1002eb80     task.obj
 0002:00008ba8       ??_C@_0BN@DHLGAAIE@task?5did?5not?5come?5from?5pool?$DP?$AA@ 1002eba8     task.obj
 0002:00008bc8       ??_C@_0BO@BAAGJEG@?$CItat?$CG3?$CJ?$DN?$DNtask_proxy?3?3pool_bit?$AA@ 1002ebc8     task.obj
 0002:00008be8       ??_C@_0DH@JJBKIJM@Empty?5proxy?5in?5the?5pool?5contains@ 1002ebe8     task.obj
 0002:00008c20       ??_C@_09LHKBIBBJ@?$CB?$CItat?$CG?$HO3?$CJ?$AA@ 1002ec20     task.obj
 0002:00008c2c       ??_C@_0CG@DMGHBMKN@task?5pointer?5in?5the?5deque?5is?5poi@ 1002ec2c     task.obj
 0002:00008c54       ??_C@_0DL@PFCEADJD@dummy_slot?4task_pool?$FLarena_slot?9@ 1002ec54     task.obj
 0002:00008c90       ??_C@_0CL@JFLKFHKK@victim?1thief?5arbitration?5algorit@ 1002ec90     task.obj
 0002:00008cbc       ??_C@_0CJ@CKDPKFPE@arena_slot?9?$DOhead?5?$DN?$DN?5arena_slot?9?$DO@ 1002ecbc     task.obj
 0002:00008ce8       ??_C@_0CM@FLLAMAOI@backwards?5compatibility?5with?5TBB@ 1002ece8     task.obj
 0002:00008d14       ??_C@_0BL@HBKJIEGL@is_version_3_task?$CI?$CKresult?$CJ?$AA@ 1002ed14     task.obj
 0002:00008d30       ??_C@_0CI@MHCAHNEP@task?5deque?5of?5a?5free?5slot?5must?5b@ 1002ed30     task.obj
 0002:00008d58       ??_C@_0CF@EONOBGEK@arena_slot?9?$DOhead?5?$DN?$DN?5arena_slot?9?$DO@ 1002ed58     task.obj
 0002:00008d80       ??_C@_0CM@FKIMGOEI@warning?3?5leaked?5?$CFld?5observer_pro@ 1002ed80     task.obj
 0002:00008dac       ??_C@_0O@HGDMPPBF@missing?5arena?$AA@ 1002edac     task.obj
 0002:00008dbc       ??_C@_05DMNAIKPB@arena?$AA@ 1002edbc     task.obj
 0002:00008dc4       ??_C@_0BB@FGGBNAIF@s?9?$DOassert_okay?$CI?$CJ?$AA@ 1002edc4     task.obj
 0002:00008dd8       ??_C@_0CK@LELAGDPJ@Nonempty?5initial?5segment?5must?5be@ 1002edd8     task.obj
 0002:00008e04       ??_C@_0CA@KCKFCMBB@initial_segment?5?$CG?$CG?5segment_size?$AA@ 1002ee04     task.obj
 0002:00008e24       ??_C@_0BK@LFACAHON@Maximal?5capacity?5exceeded?$AA@ 1002ee24     task.obj
 0002:00008e40       ??_C@_0BO@MDAELBIO@m_num_segments?5?$DM?5max_segments?$AA@ 1002ee40     task.obj
 0002:00008e60       ??_C@_0CE@CLGNJAGG@h?$CB?$DNis_small_local?5?$HM?$HM?5p?4origin?$DN?$DNt@ 1002ee60     task.obj
 0002:00008e84       ??_C@_0BK@BGIEDOEJ@?$CB?$CIh?$CGis_small?$CJ?5?$HM?$HM?5p?4origin?$AA@ 1002ee84     task.obj
 0002:00008ea0       ??_C@_0DK@OLJKBIPB@1L?$DM?$DMt?4state?$CI?$CJ?5?$CG?5?$CI1L?$DM?$DMtask?3?3execu@ 1002eea0     task.obj
 0002:00008ee0       ??_C@_0EA@JMCGFENO@completion?5of?5task?5caused?5parent@ 1002eee0     task.obj
 0002:00008f20       ??_C@_03MDCPKOII@k?$DO0?$AA@ 1002ef20     task.obj
 0002:00009158       __real@0000000000000000    1002f158     tbb_thread.obj
 0002:00009160       __real@408f400000000000    1002f160     tbb_thread.obj
 0002:00009168       __real@41efffffffe00000    1002f168     tbb_thread.obj
 0002:00009170       ?value@?$integral_constant@_N$0A@@std@@2_NB 1002f170     msvcprtd:newaop_s.obj
 0002:00009171       ?value@?$integral_constant@_N$00@std@@2_NB 1002f171     msvcprtd:newaop_s.obj
 0002:00009178       ??_7type_info@@6B@         1002f178     MSVCRTD:ti_inst.obj
 0002:00009180       ??_C@_1MC@KPMPFEII@?$AA?$CI?$AA_?$AA_?$AAo?$AAn?$AAe?$AAx?$AAi?$AAt?$AAb?$AAe?$AAg?$AAi?$AAn?$AA?5?$AA?$CB?$AA?$DN?$AA?5?$AAN?$AAU?$AAL?$AAL?$AA?5?$AA?$CG?$AA?$CG?$AA?5?$AA_?$AA_?$AAo?$AAn?$AAe?$AAx@ 1002f180     MSVCRTD:atonexit.obj
 0002:00009244       ??_C@_15GANGMFKL@?$AA?$CF?$AAs?$AA?$AA@ 1002f244     MSVCRTD:atonexit.obj
 0002:00009250       ??_C@_1FK@IGIDCAPD@?$AAf?$AA?3?$AA?2?$AAd?$AAd?$AA?2?$AAv?$AAc?$AAt?$AAo?$AAo?$AAl?$AAs?$AA?2?$AAc?$AAr?$AAt?$AA?2?$AAc?$AAr?$AAt?$AAw?$AA3?$AA2?$AA?2?$AAd?$AAl?$AAl?$AAs?$AAt?$AAu?$AAf@ 1002f250     MSVCRTD:atonexit.obj
 0002:000092ac       ??_C@_0CN@LMJJPMEG@f?3?2dd?2vctools?2crt?2crtw32?2dllstuf@ 1002f2ac     MSVCRTD:atonexit.obj
 0002:000092e4       ?ProcessDetach@NativeDll@<CrtImplementationDetails>@@0IB 1002f2e4     MSVCRTD:tncleanup.obj
 0002:000092e8       ?ProcessAttach@NativeDll@<CrtImplementationDetails>@@0IB 1002f2e8     MSVCRTD:tncleanup.obj
 0002:000092ec       ?ThreadAttach@NativeDll@<CrtImplementationDetails>@@0IB 1002f2ec     MSVCRTD:tncleanup.obj
 0002:000092f0       ?ThreadDetach@NativeDll@<CrtImplementationDetails>@@0IB 1002f2f0     MSVCRTD:tncleanup.obj
 0002:000092f4       ?ProcessVerifier@NativeDll@<CrtImplementationDetails>@@0IB 1002f2f4     MSVCRTD:tncleanup.obj
 0002:00009384       __pRawDllMain              1002f384     MSVCRTD:crtdll.obj
 0002:00009384       __pDefaultRawDllMain       1002f384     MSVCRTD:crtdll.obj
 0002:00009388       ??_C@_0CL@CCAGLLEM@f?3?2dd?2vctools?2crt?2crtw32?2dllstuf@ 1002f388     MSVCRTD:crtdll.obj
 0002:00009450       ??_C@_0NN@NGPKDKPD@The?5value?5of?5ESP?5was?5not?5properl@ 1002f450     MSVCRTD:error.obj
 0002:00009530       ??_C@_0BBN@GPMLNJCF@A?5cast?5to?5a?5smaller?5data?5type?5ha@ 1002f530     MSVCRTD:error.obj
 0002:00009650       ??_C@_0BN@FFOINMNJ@Stack?5memory?5was?5corrupted?6?$AN?$AA@ 1002f650     MSVCRTD:error.obj
 0002:00009670       ??_C@_0DG@HKJMLLLP@A?5local?5variable?5was?5used?5before@ 1002f670     MSVCRTD:error.obj
 0002:000096a8       ??_C@_0CM@NGINOKPC@Stack?5memory?5around?5_alloca?5was?5@ 1002f6a8     MSVCRTD:error.obj
 0002:000096d4       ??_C@_0BO@GNIAFIKK@Unknown?5Runtime?5Check?5Error?6?$AN?$AA@ 1002f6d4     MSVCRTD:error.obj
 0002:000096f8       ??_C@_1GM@OLMCBDMB@?$AAR?$AAu?$AAn?$AAt?$AAi?$AAm?$AAe?$AA?5?$AAC?$AAh?$AAe?$AAc?$AAk?$AA?5?$AAE?$AAr?$AAr?$AAo?$AAr?$AA?4?$AA?6?$AA?$AN?$AA?5?$AAU?$AAn?$AAa?$AAb?$AAl?$AAe?$AA?5?$AAt?$AAo@ 1002f6f8     MSVCRTD:error.obj
 0002:00009768       ??_C@_1EA@NFKNIFJP@?$AAR?$AAu?$AAn?$AA?9?$AAT?$AAi?$AAm?$AAe?$AA?5?$AAC?$AAh?$AAe?$AAc?$AAk?$AA?5?$AAF?$AAa?$AAi?$AAl?$AAu?$AAr?$AAe?$AA?5?$AA?$CD?$AA?$CF?$AAd?$AA?5?$AA?9?$AA?5?$AA?$CF?$AAs?$AA?$AA@ 1002f768     MSVCRTD:error.obj
 0002:000097a8       ??_C@_0BB@PFFGGCJP@Unknown?5Filename?$AA@ 1002f7a8     MSVCRTD:error.obj
 0002:000097bc       ??_C@_0BE@GNBOBNCK@Unknown?5Module?5Name?$AA@ 1002f7bc     MSVCRTD:error.obj
 0002:000097d0       ??_C@_0CA@IODNCDPG@Run?9Time?5Check?5Failure?5?$CD?$CFd?5?9?5?$CFs?$AA@ 1002f7d0     MSVCRTD:error.obj
 0002:000097f0       ??_C@_0CG@IAFNJNEE@Stack?5corrupted?5near?5unknown?5var@ 1002f7f0     MSVCRTD:error.obj
 0002:00009818       ??_C@_05MKKEDADM@?$CF?42X?5?$AA@ 1002f818     MSVCRTD:error.obj
 0002:00009820       ??_C@_1BG@OILDLIOJ@?$AAu?$AAs?$AAe?$AAr?$AA3?$AA2?$AA?4?$AAd?$AAl?$AAl?$AA?$AA@ 1002f820     MSVCRTD:error.obj
 0002:00009838       ??_C@_09FOPFMPEJ@wsprintfA?$AA@ 1002f838     MSVCRTD:error.obj
 0002:00009848       ??_C@_0EJ@LJKNEOLN@Stack?5area?5around?5_alloca?5memory@ 1002f848     MSVCRTD:error.obj
 0002:00009894       ??_C@_08OMAHNMHJ@?6Data?3?5?$DM?$AA@ 1002f894     MSVCRTD:error.obj
 0002:000098a0       ??_C@_0CK@DKGBICFE@?6Allocation?5number?5within?5this?5f@ 1002f8a0     MSVCRTD:error.obj
 0002:000098cc       ??_C@_07DFDJCKFN@?6Size?3?5?$AA@ 1002f8cc     MSVCRTD:error.obj
 0002:000098d4       ??_C@_0N@MHFFIMFG@?6Address?3?50x?$AA@ 1002f8d4     MSVCRTD:error.obj
 0002:000098e8       ??_C@_0EI@CLEPFNGI@Stack?5area?5around?5_alloca?5memory@ 1002f8e8     MSVCRTD:error.obj
 0002:00009930       ??_C@_0BC@KIBAILCI@?$CFs?$CFs?$CFp?$CFs?$CFld?$CFs?$CFd?$CFs?$AA@ 1002f930     MSVCRTD:error.obj
 0002:00009944       ??_C@_01EEMJAFIK@?6?$AA@   1002f944     MSVCRTD:error.obj
 0002:00009948       ??_C@_02LLMPMKNF@?$DO?5?$AA@ 1002f948     MSVCRTD:error.obj
 0002:0000994c       ??_C@_08KJEDNCKC@?$CFs?$CFs?$CFs?$CFs?$AA@ 1002f94c     MSVCRTD:error.obj
 0002:00009958       ??_C@_0DE@OHJBPMBP@A?5variable?5is?5being?5used?5without@ 1002f958     MSVCRTD:error.obj
 0002:000099a0       ??_C@_0BJ@HEGAHDFO@Stack?5pointer?5corruption?$AA@ 1002f9a0     MSVCRTD:userapi.obj
 0002:000099bc       ??_C@_0CK@FEGOIOPB@Cast?5to?5smaller?5type?5causing?5los@ 1002f9bc     MSVCRTD:userapi.obj
 0002:000099e8       ??_C@_0BI@CIGMDCBH@Stack?5memory?5corruption?$AA@ 1002f9e8     MSVCRTD:userapi.obj
 0002:00009a00       ??_C@_0CK@CNLNOEPB@Local?5variable?5used?5before?5initi@ 1002fa00     MSVCRTD:userapi.obj
 0002:00009a2c       ??_C@_0BP@OGBCLIBO@Stack?5around?5_alloca?5corrupted?$AA@ 1002fa2c     MSVCRTD:userapi.obj
 0002:00009a8c       ?LocalIdBitWidth@CrossScopeId@CodeViewInfo@@2IB 1002fa8c     MSVCRTD:pdblkup.obj
 0002:00009a90       ?IdScopeBitWidth@CrossScopeId@CodeViewInfo@@2IB 1002fa90     MSVCRTD:pdblkup.obj
 0002:00009a94       ?StartCrossScopeId@CrossScopeId@CodeViewInfo@@2IB 1002fa94     MSVCRTD:pdblkup.obj
 0002:00009a98       ?LocalIdMask@CrossScopeId@CodeViewInfo@@2IB 1002fa98     MSVCRTD:pdblkup.obj
 0002:00009a9c       ?ScopeIdMask@CrossScopeId@CodeViewInfo@@2IB 1002fa9c     MSVCRTD:pdblkup.obj
 0002:00009aa0       ?MaxLocalId@CrossScopeId@CodeViewInfo@@2IB 1002faa0     MSVCRTD:pdblkup.obj
 0002:00009aa4       ?MaxScopeId@CrossScopeId@CodeViewInfo@@2IB 1002faa4     MSVCRTD:pdblkup.obj
 0002:00009aa8       ??_C@_1BK@GAEMIDIL@?$AAA?$AAD?$AAV?$AAA?$AAP?$AAI?$AA3?$AA2?$AA?4?$AAD?$AAL?$AAL?$AA?$AA@ 1002faa8     MSVCRTD:pdblkup.obj
 0002:00009ac4       ??_C@_0O@COHOBMLB@RegOpenKeyExW?$AA@ 1002fac4     MSVCRTD:pdblkup.obj
 0002:00009ad4       ??_C@_0BB@GLNAEDBD@RegQueryValueExW?$AA@ 1002fad4     MSVCRTD:pdblkup.obj
 0002:00009ae8       ??_C@_0M@HLOHPNFA@RegCloseKey?$AA@ 1002fae8     MSVCRTD:pdblkup.obj
 0002:00009af8       ??_C@_1FM@EGIBBNPP@?$AAS?$AAO?$AAF?$AAT?$AAW?$AAA?$AAR?$AAE?$AA?2?$AAM?$AAi?$AAc?$AAr?$AAo?$AAs?$AAo?$AAf?$AAt?$AA?2?$AAV?$AAi?$AAs?$AAu?$AAa?$AAl?$AAS?$AAt?$AAu?$AAd?$AAi?$AAo?$AA?2@ 1002faf8     MSVCRTD:pdblkup.obj
 0002:00009b54       ??_C@_1BG@EABPBLLF@?$AAP?$AAr?$AAo?$AAd?$AAu?$AAc?$AAt?$AAD?$AAi?$AAr?$AA?$AA@ 1002fb54     MSVCRTD:pdblkup.obj
 0002:00009b88       ??_C@_1BC@EOIMGOME@?$AAM?$AAS?$AAP?$AAD?$AAB?$AA1?$AA2?$AA0?$AA?$AA@ 1002fb88     MSVCRTD:pdblkup.obj
 0002:00009b9c       ??_C@_0BB@KCIACLNC@PDBOpenValidate5?$AA@ 1002fb9c     MSVCRTD:pdblkup.obj
 0002:00009bb0       ??_C@_01KDCPPGHE@r?$AA@    1002fbb0     MSVCRTD:pdblkup.obj
 0002:00009bb8       __load_config_used         1002fbb8     MSVCRTD:loadcfg.obj
 0002:00009c60       ??_R4concurrent_queue_base@internal@tbb@@6B@ 1002fc60     concurrent_queue_v2.obj
 0002:00009c74       ??_R3concurrent_queue_base@internal@tbb@@8 1002fc74     concurrent_queue_v2.obj
 0002:00009c84       ??_R2concurrent_queue_base@internal@tbb@@8 1002fc84     concurrent_queue_v2.obj
 0002:00009c94       ??_R1A@?0A@EA@concurrent_queue_base@internal@tbb@@8 1002fc94     concurrent_queue_v2.obj
 0002:00009cb0       ??_R13?0A@EN@no_copy@internal@tbb@@8 1002fcb0     concurrent_queue_v2.obj
 0002:00009ccc       ??_R3no_copy@internal@tbb@@8 1002fccc     concurrent_queue_v2.obj
 0002:00009cdc       ??_R2no_copy@internal@tbb@@8 1002fcdc     concurrent_queue_v2.obj
 0002:00009ce8       ??_R1A@?0A@EA@no_copy@internal@tbb@@8 1002fce8     concurrent_queue_v2.obj
 0002:00009d04       ??_R1A@?0A@EN@no_assign@internal@tbb@@8 1002fd04     concurrent_queue_v2.obj
 0002:00009d20       ??_R3no_assign@internal@tbb@@8 1002fd20     concurrent_queue_v2.obj
 0002:00009d30       ??_R2no_assign@internal@tbb@@8 1002fd30     concurrent_queue_v2.obj
 0002:00009d38       ??_R1A@?0A@EA@no_assign@internal@tbb@@8 1002fd38     concurrent_queue_v2.obj
 0002:00009d54       ??_R13?0A@EN@no_assign@internal@tbb@@8 1002fd54     concurrent_queue_v2.obj
 0002:00009d70       ??_R1A@?0A@EA@exception@std@@8 1002fd70     concurrent_vector_v2.obj
 0002:00009d8c       ??_R3exception@std@@8      1002fd8c     concurrent_vector_v2.obj
 0002:00009d9c       ??_R2exception@std@@8      1002fd9c     concurrent_vector_v2.obj
 0002:00009da4       ??_R4logic_error@std@@6B@  1002fda4     concurrent_vector_v2.obj
 0002:00009db8       ??_R3logic_error@std@@8    1002fdb8     concurrent_vector_v2.obj
 0002:00009dc8       ??_R2logic_error@std@@8    1002fdc8     concurrent_vector_v2.obj
 0002:00009dd4       ??_R1A@?0A@EA@logic_error@std@@8 1002fdd4     concurrent_vector_v2.obj
 0002:00009df0       ??_R4length_error@std@@6B@ 1002fdf0     concurrent_vector_v2.obj
 0002:00009e04       ??_R3length_error@std@@8   1002fe04     concurrent_vector_v2.obj
 0002:00009e14       ??_R2length_error@std@@8   1002fe14     concurrent_vector_v2.obj
 0002:00009e24       ??_R1A@?0A@EA@length_error@std@@8 1002fe24     concurrent_vector_v2.obj
 0002:00009e40       ??_R4error_category@std@@6B@ 1002fe40     concurrent_vector_v2.obj
 0002:00009e54       ??_R3error_category@std@@8 1002fe54     concurrent_vector_v2.obj
 0002:00009e64       ??_R2error_category@std@@8 1002fe64     concurrent_vector_v2.obj
 0002:00009e6c       ??_R1A@?0A@EA@error_category@std@@8 1002fe6c     concurrent_vector_v2.obj
 0002:00009e88       ??_R4_Generic_error_category@std@@6B@ 1002fe88     concurrent_vector_v2.obj
 0002:00009e9c       ??_R3_Generic_error_category@std@@8 1002fe9c     concurrent_vector_v2.obj
 0002:00009eac       ??_R2_Generic_error_category@std@@8 1002feac     concurrent_vector_v2.obj
 0002:00009eb8       ??_R1A@?0A@EA@_Generic_error_category@std@@8 1002feb8     concurrent_vector_v2.obj
 0002:00009ed4       ??_R4_Iostream_error_category@std@@6B@ 1002fed4     concurrent_vector_v2.obj
 0002:00009ee8       ??_R3_Iostream_error_category@std@@8 1002fee8     concurrent_vector_v2.obj
 0002:00009ef8       ??_R2_Iostream_error_category@std@@8 1002fef8     concurrent_vector_v2.obj
 0002:00009f08       ??_R1A@?0A@EA@_Iostream_error_category@std@@8 1002ff08     concurrent_vector_v2.obj
 0002:00009f24       ??_R4_System_error_category@std@@6B@ 1002ff24     concurrent_vector_v2.obj
 0002:00009f38       ??_R3_System_error_category@std@@8 1002ff38     concurrent_vector_v2.obj
 0002:00009f48       ??_R2_System_error_category@std@@8 1002ff48     concurrent_vector_v2.obj
 0002:00009f58       ??_R1A@?0A@EA@_System_error_category@std@@8 1002ff58     concurrent_vector_v2.obj
 0002:00009f74       ??_R4bad_alloc@std@@6B@    1002ff74     cache_aligned_allocator.obj
 0002:00009f88       ??_R3bad_alloc@std@@8      1002ff88     cache_aligned_allocator.obj
 0002:00009f98       ??_R2bad_alloc@std@@8      1002ff98     cache_aligned_allocator.obj
 0002:00009fa4       ??_R1A@?0A@EA@bad_alloc@std@@8 1002ffa4     cache_aligned_allocator.obj
 0002:00009fc0       ??_R4bad_last_alloc@tbb@@6B@ 1002ffc0     concurrent_queue.obj
 0002:00009fd4       ??_R3bad_last_alloc@tbb@@8 1002ffd4     concurrent_queue.obj
 0002:00009fe4       ??_R2bad_last_alloc@tbb@@8 1002ffe4     concurrent_queue.obj
 0002:00009ff4       ??_R1A@?0A@EA@bad_last_alloc@tbb@@8 1002fff4     concurrent_queue.obj
 0002:0000a010       ??_R4concurrent_queue_base_v3@internal@tbb@@6B@ 10030010     concurrent_queue.obj
 0002:0000a024       ??_R3concurrent_queue_base_v3@internal@tbb@@8 10030024     concurrent_queue.obj
 0002:0000a034       ??_R2concurrent_queue_base_v3@internal@tbb@@8 10030034     concurrent_queue.obj
 0002:0000a044       ??_R1A@?0A@EA@concurrent_queue_base_v3@internal@tbb@@8 10030044     concurrent_queue.obj
 0002:0000a060       ??_R4out_of_range@std@@6B@ 10030060     concurrent_vector.obj
 0002:0000a074       ??_R3out_of_range@std@@8   10030074     concurrent_vector.obj
 0002:0000a084       ??_R2out_of_range@std@@8   10030084     concurrent_vector.obj
 0002:0000a094       ??_R1A@?0A@EA@out_of_range@std@@8 10030094     concurrent_vector.obj
 0002:0000a0b0       ??_R4runtime_error@std@@6B@ 100300b0     concurrent_vector.obj
 0002:0000a0c4       ??_R3runtime_error@std@@8  100300c4     concurrent_vector.obj
 0002:0000a0d4       ??_R2runtime_error@std@@8  100300d4     concurrent_vector.obj
 0002:0000a0e0       ??_R1A@?0A@EA@runtime_error@std@@8 100300e0     concurrent_vector.obj
 0002:0000a0fc       ??_R4range_error@std@@6B@  100300fc     concurrent_vector.obj
 0002:0000a110       ??_R3range_error@std@@8    10030110     concurrent_vector.obj
 0002:0000a120       ??_R2range_error@std@@8    10030120     concurrent_vector.obj
 0002:0000a130       ??_R1A@?0A@EA@range_error@std@@8 10030130     concurrent_vector.obj
 0002:0000a14c       ??_R4task@tbb@@6B@         1003014c     pipeline.obj
 0002:0000a160       ??_R3task@tbb@@8           10030160     pipeline.obj
 0002:0000a170       ??_R2task@tbb@@8           10030170     pipeline.obj
 0002:0000a180       ??_R1A@?0A@EA@task@tbb@@8  10030180     pipeline.obj
 0002:0000a19c       ??_R4pipeline@tbb@@6B@     1003019c     pipeline.obj
 0002:0000a1b0       ??_R3pipeline@tbb@@8       100301b0     pipeline.obj
 0002:0000a1c0       ??_R2pipeline@tbb@@8       100301c0     pipeline.obj
 0002:0000a1c8       ??_R1A@?0A@EA@pipeline@tbb@@8 100301c8     pipeline.obj
 0002:0000a1e4       ??_R4filter@tbb@@6B@       100301e4     pipeline.obj
 0002:0000a1f8       ??_R3filter@tbb@@8         100301f8     pipeline.obj
 0002:0000a208       ??_R2filter@tbb@@8         10030208     pipeline.obj
 0002:0000a218       ??_R1A@?0A@EA@filter@tbb@@8 10030218     pipeline.obj
 0002:0000a234       ??_R4stage_task@internal@tbb@@6B@ 10030234     pipeline.obj
 0002:0000a248       ??_R3stage_task@internal@tbb@@8 10030248     pipeline.obj
 0002:0000a258       ??_R2stage_task@internal@tbb@@8 10030258     pipeline.obj
 0002:0000a270       ??_R1A@?0A@EA@stage_task@internal@tbb@@8 10030270     pipeline.obj
 0002:0000a28c       ??_R13?0A@EA@task_info@internal@tbb@@8 1003028c     pipeline.obj
 0002:0000a2a8       ??_R3task_info@internal@tbb@@8 100302a8     pipeline.obj
 0002:0000a2b8       ??_R2task_info@internal@tbb@@8 100302b8     pipeline.obj
 0002:0000a2c0       ??_R1A@?0A@EA@task_info@internal@tbb@@8 100302c0     pipeline.obj
 0002:0000a2dc       ??_R4pipeline_root_task@internal@tbb@@6B@ 100302dc     pipeline.obj
 0002:0000a2f0       ??_R3pipeline_root_task@internal@tbb@@8 100302f0     pipeline.obj
 0002:0000a300       ??_R2pipeline_root_task@internal@tbb@@8 10030300     pipeline.obj
 0002:0000a314       ??_R1A@?0A@EA@pipeline_root_task@internal@tbb@@8 10030314     pipeline.obj
 0002:0000a330       ??_R4server@rml@@6B@       10030330     private_server.obj
 0002:0000a344       ??_R3server@rml@@8         10030344     private_server.obj
 0002:0000a354       ??_R2server@rml@@8         10030354     private_server.obj
 0002:0000a360       ??_R1A@?0A@EA@server@rml@@8 10030360     private_server.obj
 0002:0000a37c       ??_R1A@?0A@EA@versioned_object@rml@@8 1003037c     private_server.obj
 0002:0000a398       ??_R3versioned_object@rml@@8 10030398     private_server.obj
 0002:0000a3a8       ??_R2versioned_object@rml@@8 100303a8     private_server.obj
 0002:0000a3b0       ??_R4versioned_object@rml@@6B@ 100303b0     private_server.obj
 0002:0000a3c4       ??_R4tbb_server@rml@internal@tbb@@6B@ 100303c4     private_server.obj
 0002:0000a3d8       ??_R3tbb_server@rml@internal@tbb@@8 100303d8     private_server.obj
 0002:0000a3e8       ??_R2tbb_server@rml@internal@tbb@@8 100303e8     private_server.obj
 0002:0000a3f8       ??_R1A@?0A@EA@tbb_server@rml@internal@tbb@@8 100303f8     private_server.obj
 0002:0000a414       ??_R4private_server@rml@internal@tbb@@6B@ 10030414     private_server.obj
 0002:0000a428       ??_R3private_server@rml@internal@tbb@@8 10030428     private_server.obj
 0002:0000a438       ??_R2private_server@rml@internal@tbb@@8 10030438     private_server.obj
 0002:0000a454       ??_R1A@?0A@EA@private_server@rml@internal@tbb@@8 10030454     private_server.obj
 0002:0000a470       ??_R4scheduler@internal@tbb@@6B@ 10030470     task.obj
 0002:0000a484       ??_R3scheduler@internal@tbb@@8 10030484     task.obj
 0002:0000a494       ??_R2scheduler@internal@tbb@@8 10030494     task.obj
 0002:0000a4a4       ??_R1A@?0A@EA@scheduler@internal@tbb@@8 100304a4     task.obj
 0002:0000a4c0       ??_R4empty_task@tbb@@6B@   100304c0     task.obj
 0002:0000a4d4       ??_R3empty_task@tbb@@8     100304d4     task.obj
 0002:0000a4e4       ??_R2empty_task@tbb@@8     100304e4     task.obj
 0002:0000a4f8       ??_R1A@?0A@EA@empty_task@tbb@@8 100304f8     task.obj
 0002:0000a514       ??_R4tbb_exception@tbb@@6B@ 10030514     task.obj
 0002:0000a528       ??_R3tbb_exception@tbb@@8  10030528     task.obj
 0002:0000a538       ??_R2tbb_exception@tbb@@8  10030538     task.obj
 0002:0000a544       ??_R1A@?0A@EA@tbb_exception@tbb@@8 10030544     task.obj
 0002:0000a560       ??_R4captured_exception@tbb@@6B@ 10030560     task.obj
 0002:0000a574       ??_R3captured_exception@tbb@@8 10030574     task.obj
 0002:0000a584       ??_R2captured_exception@tbb@@8 10030584     task.obj
 0002:0000a594       ??_R1A@?0A@EA@captured_exception@tbb@@8 10030594     task.obj
 0002:0000a5b0       ??_R4client@rml@@6B@       100305b0     task.obj
 0002:0000a5c4       ??_R3client@rml@@8         100305c4     task.obj
 0002:0000a5d4       ??_R2client@rml@@8         100305d4     task.obj
 0002:0000a5e0       ??_R1A@?0A@EA@client@rml@@8 100305e0     task.obj
 0002:0000a5fc       ??_R4tbb_client@rml@internal@tbb@@6B@ 100305fc     task.obj
 0002:0000a610       ??_R3tbb_client@rml@internal@tbb@@8 10030610     task.obj
 0002:0000a620       ??_R2tbb_client@rml@internal@tbb@@8 10030620     task.obj
 0002:0000a630       ??_R1A@?0A@EA@tbb_client@rml@internal@tbb@@8 10030630     task.obj
 0002:0000a64c       ??_R4GenericScheduler@internal@tbb@@6B@ 1003064c     task.obj
 0002:0000a660       ??_R3GenericScheduler@internal@tbb@@8 10030660     task.obj
 0002:0000a670       ??_R2GenericScheduler@internal@tbb@@8 10030670     task.obj
 0002:0000a688       ??_R1A@?0A@EA@GenericScheduler@internal@tbb@@8 10030688     task.obj
 0002:0000a6a4       ??_R13?0A@EA@job@rml@@8    100306a4     task.obj
 0002:0000a6c0       ??_R3job@rml@@8            100306c0     task.obj
 0002:0000a6d0       ??_R2job@rml@@8            100306d0     task.obj
 0002:0000a6d8       ??_R1A@?0A@EA@job@rml@@8   100306d8     task.obj
 0002:0000a6f4       ??_R4UnpaddedArenaPrefix@internal@tbb@@6B@ 100306f4     task.obj
 0002:0000a708       ??_R3UnpaddedArenaPrefix@internal@tbb@@8 10030708     task.obj
 0002:0000a718       ??_R2UnpaddedArenaPrefix@internal@tbb@@8 10030718     task.obj
 0002:0000a734       ??_R1A@?0A@EA@UnpaddedArenaPrefix@internal@tbb@@8 10030734     task.obj
 0002:0000a750       ??_R1A@?0A@EN@tbb_client@rml@internal@tbb@@8 10030750     task.obj
 0002:0000a76c       ??_R1A@?0A@EJ@client@rml@@8 1003076c     task.obj
 0002:0000a788       ??_R1A@?0A@EJ@versioned_object@rml@@8 10030788     task.obj
 0002:0000a7a4       ??_R4ArenaPrefix@internal@tbb@@6B@ 100307a4     task.obj
 0002:0000a7b8       ??_R3ArenaPrefix@internal@tbb@@8 100307b8     task.obj
 0002:0000a7c8       ??_R2ArenaPrefix@internal@tbb@@8 100307c8     task.obj
 0002:0000a7e8       ??_R1A@?0A@EA@ArenaPrefix@internal@tbb@@8 100307e8     task.obj
 0002:0000a804       ??_R4?$CustomScheduler@UDefaultSchedulerTraits@internal@tbb@@@internal@tbb@@6B@ 10030804     task.obj
 0002:0000a818       ??_R3?$CustomScheduler@UDefaultSchedulerTraits@internal@tbb@@@internal@tbb@@8 10030818     task.obj
 0002:0000a828       ??_R2?$CustomScheduler@UDefaultSchedulerTraits@internal@tbb@@@internal@tbb@@8 10030828     task.obj
 0002:0000a844       ??_R1A@?0A@EA@?$CustomScheduler@UDefaultSchedulerTraits@internal@tbb@@@internal@tbb@@8 10030844     task.obj
 0002:0000a860       ??_R1A@?0A@EN@GenericScheduler@internal@tbb@@8 10030860     task.obj
 0002:0000a87c       ??_R1A@?0A@EJ@scheduler@internal@tbb@@8 1003087c     task.obj
 0002:0000a898       ??_R13?0A@EJ@job@rml@@8    10030898     task.obj
 0002:0000a8b4       ??_R4?$CustomScheduler@UIntelSchedulerTraits@internal@tbb@@@internal@tbb@@6B@ 100308b4     task.obj
 0002:0000a8c8       ??_R3?$CustomScheduler@UIntelSchedulerTraits@internal@tbb@@@internal@tbb@@8 100308c8     task.obj
 0002:0000a8d8       ??_R2?$CustomScheduler@UIntelSchedulerTraits@internal@tbb@@@internal@tbb@@8 100308d8     task.obj
 0002:0000a8f4       ??_R1A@?0A@EA@?$CustomScheduler@UIntelSchedulerTraits@internal@tbb@@@internal@tbb@@8 100308f4     task.obj
 0002:0000a910       ??_R4type_info@@6B@        10030910     MSVCRTD:ti_inst.obj
 0002:0000a924       ??_R3type_info@@8          10030924     MSVCRTD:ti_inst.obj
 0002:0000a934       ??_R2type_info@@8          10030934     MSVCRTD:ti_inst.obj
 0002:0000a93c       ??_R1A@?0A@EA@type_info@@8 1003093c     MSVCRTD:ti_inst.obj
 0002:0000a960       ___safe_se_handler_table   10030960     <linker-defined>
 0002:0000aa74       ___rtc_iaa                 10030a74     MSVCRTD:initsect.obj
 0002:0000aad0       ___rtc_izz                 10030ad0     MSVCRTD:initsect.obj
 0002:0000aad4       ___rtc_taa                 10030ad4     MSVCRTD:initsect.obj
 0002:0000ab30       ___rtc_tzz                 10030b30     MSVCRTD:initsect.obj
 0002:0000ad2c       __CT??_R0?AVexception@std@@@8??0exception@std@@QAE@ABV01@@Z12 10030d2c     concurrent_vector_v2.obj
 0002:0000ad48       __TI3?AVlength_error@std@@ 10030d48     concurrent_vector_v2.obj
 0002:0000ad58       __CTA3?AVlength_error@std@@ 10030d58     concurrent_vector_v2.obj
 0002:0000ad68       __CT??_R0?AVlength_error@std@@@8??0length_error@std@@QAE@ABV01@@Z12 10030d68     concurrent_vector_v2.obj
 0002:0000ad84       __CT??_R0?AVlogic_error@std@@@8??0logic_error@std@@QAE@ABV01@@Z12 10030d84     concurrent_vector_v2.obj
 0002:0000ada0       __TI2?AVbad_alloc@std@@    10030da0     cache_aligned_allocator.obj
 0002:0000adb0       __CTA2?AVbad_alloc@std@@   10030db0     cache_aligned_allocator.obj
 0002:0000adbc       __CT??_R0?AVbad_alloc@std@@@8??0bad_alloc@std@@QAE@ABV01@@Z12 10030dbc     cache_aligned_allocator.obj
 0002:0000af74       __TI3?AVbad_last_alloc@tbb@@ 10030f74     concurrent_queue.obj
 0002:0000af84       __CTA3?AVbad_last_alloc@tbb@@ 10030f84     concurrent_queue.obj
 0002:0000af94       __CT??_R0?AVbad_last_alloc@tbb@@@8??0bad_last_alloc@tbb@@QAE@ABV01@@Z12 10030f94     concurrent_queue.obj
 0002:0000b1ac       __CT??_R0?AVruntime_error@std@@@8??0runtime_error@std@@QAE@ABV01@@Z12 100311ac     concurrent_vector.obj
 0002:0000b1c8       __TI3?AVout_of_range@std@@ 100311c8     concurrent_vector.obj
 0002:0000b1d8       __CTA3?AVout_of_range@std@@ 100311d8     concurrent_vector.obj
 0002:0000b1e8       __CT??_R0?AVout_of_range@std@@@8??0out_of_range@std@@QAE@ABV01@@Z12 100311e8     concurrent_vector.obj
 0002:0000b204       __TI3?AVrange_error@std@@  10031204     concurrent_vector.obj
 0002:0000b214       __CTA3?AVrange_error@std@@ 10031214     concurrent_vector.obj
 0002:0000b224       __CT??_R0?AVrange_error@std@@@8??0range_error@std@@QAE@ABV01@@Z12 10031224     concurrent_vector.obj
 0002:0000bb44       __TI3?AVcaptured_exception@tbb@@ 10031b44     task.obj
 0002:0000bb54       __CTA3?AVcaptured_exception@tbb@@ 10031b54     task.obj
 0002:0000bb64       __CT??_R0?AVcaptured_exception@tbb@@@8??0captured_exception@tbb@@QAE@ABV01@@Z24 10031b64     task.obj
 0002:0000bb80       __CT??_R0?AVtbb_exception@tbb@@@8??0tbb_exception@tbb@@QAE@ABV01@@Z12 10031b80     task.obj
 0002:0000bb9c       __TI2?AVruntime_error@std@@ 10031b9c     tbb_misc.obj
 0002:0000bbac       __CTA2?AVruntime_error@std@@ 10031bac     tbb_misc.obj
 0002:0000e8d8       __IMPORT_DESCRIPTOR_KERNEL32 100348d8     kernel32:KERNEL32.dll
 0002:0000e8ec       __IMPORT_DESCRIPTOR_MSVCP120D 100348ec     msvcprtd:MSVCP120D.dll
 0002:0000e900       __IMPORT_DESCRIPTOR_MSVCR120D 10034900     MSVCRTD:MSVCR120D.dll
 0002:0000e914       __NULL_IMPORT_DESCRIPTOR   10034914     kernel32:KERNEL32.dll
 0003:00000018       ___itt_markA_ptr_          10036018     itt_notify_proxy.obj
 0003:0000001c       ___itt_markW_ptr_          1003601c     itt_notify_proxy.obj
 0003:00000020       ___itt_mark_globalA_ptr_   10036020     itt_notify_proxy.obj
 0003:00000164       ___itt_mark_globalW_ptr_   10036164     itt_notify_proxy.obj
 0003:000002a0       ___itt_thread_set_nameA_ptr_ 100362a0     itt_notify_proxy.obj
 0003:000003c4       ___itt_thread_set_nameW_ptr_ 100363c4     itt_notify_proxy.obj
 0003:00000480       ___itt_sync_createA_ptr_   10036480     itt_notify_proxy.obj
 0003:00000484       ___itt_sync_createW_ptr_   10036484     itt_notify_proxy.obj
 0003:00000488       ___itt_sync_renameA_ptr_   10036488     itt_notify_proxy.obj
 0003:0000048c       ___itt_sync_renameW_ptr_   1003648c     itt_notify_proxy.obj
 0003:00000490       ___itt_sync_destroy_ptr_   10036490     itt_notify_proxy.obj
 0003:00000494       ___itt_mark_off_ptr_       10036494     itt_notify_proxy.obj
 0003:00000498       ___itt_mark_global_off_ptr_ 10036498     itt_notify_proxy.obj
 0003:0000049c       ___itt_thread_ignore_ptr_  1003649c     itt_notify_proxy.obj
 0003:000004a0       ___itt_sync_prepare_ptr_   100364a0     itt_notify_proxy.obj
 0003:000004a4       ___itt_sync_cancel_ptr_    100364a4     itt_notify_proxy.obj
 0003:000004a8       ___itt_sync_acquired_ptr_  100364a8     itt_notify_proxy.obj
 0003:000004ac       ___itt_sync_releasing_ptr_ 100364ac     itt_notify_proxy.obj
 0003:000004b0       ___itt_sync_released_ptr_  100364b0     itt_notify_proxy.obj
 0003:000004b4       ___itt_memory_read_ptr_    100364b4     itt_notify_proxy.obj
 0003:000004b8       ___itt_memory_write_ptr_   100364b8     itt_notify_proxy.obj
 0003:000004bc       ___itt_memory_update_ptr_  100364bc     itt_notify_proxy.obj
 0003:000004c0       ___itt_jit_notify_event_ptr_ 100364c0     itt_notify_proxy.obj
 0003:000004c4       ___itt_mark_createA_ptr_   100364c4     itt_notify_proxy.obj
 0003:000004c8       ___itt_mark_createW_ptr_   100364c8     itt_notify_proxy.obj
 0003:000004cc       ___itt_fsync_prepare_ptr_  100364cc     itt_notify_proxy.obj
 0003:000004d0       ___itt_fsync_cancel_ptr_   100364d0     itt_notify_proxy.obj
 0003:000004d4       ___itt_fsync_acquired_ptr_ 100364d4     itt_notify_proxy.obj
 0003:000004d8       ___itt_fsync_releasing_ptr_ 100364d8     itt_notify_proxy.obj
 0003:000004dc       ___itt_fsync_released_ptr_ 100364dc     itt_notify_proxy.obj
 0003:000004e0       ___itt_notify_sync_prepare_ptr_ 100364e0     itt_notify_proxy.obj
 0003:000004e4       ___itt_notify_sync_cancel_ptr_ 100364e4     itt_notify_proxy.obj
 0003:000004e8       ___itt_notify_sync_acquired_ptr_ 100364e8     itt_notify_proxy.obj
 0003:000004ec       ___itt_notify_sync_releasing_ptr_ 100364ec     itt_notify_proxy.obj
 0003:000004f0       ___itt_notify_cpath_target_ptr_ 100364f0     itt_notify_proxy.obj
 0003:000004f4       ___itt_sync_set_nameA_ptr_ 100364f4     itt_notify_proxy.obj
 0003:000004f8       ___itt_sync_set_nameW_ptr_ 100364f8     itt_notify_proxy.obj
 0003:000004fc       ___itt_thr_name_setA_ptr_  100364fc     itt_notify_proxy.obj
 0003:00000500       ___itt_thr_name_setW_ptr_  10036500     itt_notify_proxy.obj
 0003:00000504       ___itt_event_createA_ptr_  10036504     itt_notify_proxy.obj
 0003:00000508       ___itt_event_createW_ptr_  10036508     itt_notify_proxy.obj
 0003:0000050c       ___itt_thr_ignore_ptr_     1003650c     itt_notify_proxy.obj
 0003:00000510       ___itt_event_start_ptr_    10036510     itt_notify_proxy.obj
 0003:00000514       ___itt_event_end_ptr_      10036514     itt_notify_proxy.obj
 0003:00000518       ___itt_state_get_ptr_      10036518     itt_notify_proxy.obj
 0003:0000051c       ___itt_state_set_ptr_      1003651c     itt_notify_proxy.obj
 0003:00000520       ___itt_obj_mode_set_ptr_   10036520     itt_notify_proxy.obj
 0003:00000524       ___itt_thr_mode_set_ptr_   10036524     itt_notify_proxy.obj
 0003:00000528       ___itt_api_version_ptr_    10036528     itt_notify_proxy.obj
 0003:0000052c       ___itt_jit_get_new_method_id_ptr_ 1003652c     itt_notify_proxy.obj
 0003:0000060c       ___itt_pause_ptr_          1003660c     itt_notify_proxy.obj
 0003:0000088c       ___itt_resume_ptr_         1003688c     itt_notify_proxy.obj
 0003:00000890       ?SyncType_GlobalLock@tbb@@3PB_WB 10036890     task.obj
 0003:00000894       ?SyncType_Scheduler@tbb@@3PB_WB 10036894     task.obj
 0003:00000898       ?SyncObj_SchedulerInitialization@tbb@@3PB_WB 10036898     task.obj
 0003:0000089c       ?SyncObj_SchedulersList@tbb@@3PB_WB 1003689c     task.obj
 0003:000008a0       ?SyncObj_TaskStealingLoop@tbb@@3PB_WB 100368a0     task.obj
 0003:000008a4       ?SyncObj_WorkerTaskPool@tbb@@3PB_WB 100368a4     task.obj
 0003:000008a8       ?SyncObj_MasterTaskPool@tbb@@3PB_WB 100368a8     task.obj
 0003:000008ac       ?SyncObj_GateLock@tbb@@3PB_WB 100368ac     task.obj
 0003:000008b0       ?SyncObj_Gate@tbb@@3PB_WB  100368b0     task.obj
 0003:000008b4       ?SyncObj_ContextsList@tbb@@3PB_WB 100368b4     task.obj
 0003:000008b8       ?SyncObj_WorkerLifeCycleMgmt@tbb@@3PB_WB 100368b8     task.obj
 0003:000008bc       ?SyncObj_TaskPoolSpinning@tbb@@3PB_WB 100368bc     task.obj
 0003:000008c0       ?SyncObj_Mailbox@tbb@@3PB_WB 100368c0     task.obj
 0003:000008c4       ?SyncObj_TaskReturnList@tbb@@3PB_WB 100368c4     task.obj
 0003:000008d0       ___security_cookie         100368d0     MSVCRTD:gs_cookie.obj
 0003:000008d4       ___security_cookie_complement 100368d4     MSVCRTD:gs_cookie.obj
 0003:000008e0       ?_RTC_ErrorLevels@@3PAHA   100368e0     MSVCRTD:error.obj
 0003:00000900       ___native_dllmain_reason   10036900     MSVCRTD:natstart.obj
 0003:00000908       ??_R0?AVconcurrent_queue_base@internal@tbb@@@8 10036908     concurrent_queue_v2.obj
 0003:0000093c       ??_R0?AVno_copy@internal@tbb@@@8 1003693c     concurrent_queue_v2.obj
 0003:00000960       ??_R0?AVno_assign@internal@tbb@@@8 10036960     concurrent_queue_v2.obj
 0003:00000988       ??_R0?AVexception@std@@@8  10036988     concurrent_vector_v2.obj
 0003:000009a4       ??_R0?AVlength_error@std@@@8 100369a4     concurrent_vector_v2.obj
 0003:000009c4       ??_R0?AVlogic_error@std@@@8 100369c4     concurrent_vector_v2.obj
 0003:000009e4       ??_R0?AVerror_category@std@@@8 100369e4     concurrent_vector_v2.obj
 0003:00000a08       ??_R0?AV_Generic_error_category@std@@@8 10036a08     concurrent_vector_v2.obj
 0003:00000a34       ??_R0?AV_Iostream_error_category@std@@@8 10036a34     concurrent_vector_v2.obj
 0003:00000a60       ??_R0?AV_System_error_category@std@@@8 10036a60     concurrent_vector_v2.obj
 0003:00000a8c       ??_R0?AVbad_alloc@std@@@8  10036a8c     cache_aligned_allocator.obj
 0003:00000aa8       ??_R0?AVbad_last_alloc@tbb@@@8 10036aa8     concurrent_queue.obj
 0003:00000acc       ??_R0?AVconcurrent_queue_base_v3@internal@tbb@@@8 10036acc     concurrent_queue.obj
 0003:00000b00       ??_R0?AVruntime_error@std@@@8 10036b00     concurrent_vector.obj
 0003:00000b20       ??_R0?AVout_of_range@std@@@8 10036b20     concurrent_vector.obj
 0003:00000b40       ??_R0?AVrange_error@std@@@8 10036b40     concurrent_vector.obj
 0003:00000b60       ??_R0?AVtask@tbb@@@8       10036b60     pipeline.obj
 0003:00000b78       ??_R0?AVpipeline@tbb@@@8   10036b78     pipeline.obj
 0003:00000b94       ??_R0?AVfilter@tbb@@@8     10036b94     pipeline.obj
 0003:00000bb0       ??_R0?AVstage_task@internal@tbb@@@8 10036bb0     pipeline.obj
 0003:00000bd8       ??_R0?AUtask_info@internal@tbb@@@8 10036bd8     pipeline.obj
 0003:00000c00       ??_R0?AVpipeline_root_task@internal@tbb@@@8 10036c00     pipeline.obj
 0003:00000c30       ??_R0?AVserver@rml@@@8     10036c30     private_server.obj
 0003:00000c4c       ??_R0?AVversioned_object@rml@@@8 10036c4c     private_server.obj
 0003:00000c70       ??_R0?AVtbb_server@rml@internal@tbb@@@8 10036c70     private_server.obj
 0003:00000c9c       ??_R0?AVprivate_server@rml@internal@tbb@@@8 10036c9c     private_server.obj
 0003:00000ccc       ??_R0?AVcaptured_exception@tbb@@@8 10036ccc     task.obj
 0003:00000cf4       ??_R0?AVtbb_exception@tbb@@@8 10036cf4     task.obj
 0003:00000d14       ??_R0?AVscheduler@internal@tbb@@@8 10036d14     task.obj
 0003:00000d3c       ??_R0?AVempty_task@tbb@@@8 10036d3c     task.obj
 0003:00000d5c       ??_R0?AVclient@rml@@@8     10036d5c     task.obj
 0003:00000d78       ??_R0?AVtbb_client@rml@internal@tbb@@@8 10036d78     task.obj
 0003:00000da4       ??_R0?AVGenericScheduler@internal@tbb@@@8 10036da4     task.obj
 0003:00000dd0       ??_R0?AVjob@rml@@@8        10036dd0     task.obj
 0003:00000de8       ??_R0?AVUnpaddedArenaPrefix@internal@tbb@@@8 10036de8     task.obj
 0003:00000e18       ??_R0?AVArenaPrefix@internal@tbb@@@8 10036e18     task.obj
 0003:00000e40       ??_R0?AV?$CustomScheduler@UDefaultSchedulerTraits@internal@tbb@@@internal@tbb@@@8 10036e40     task.obj
 0003:00000e98       ??_R0?AV?$CustomScheduler@UIntelSchedulerTraits@internal@tbb@@@internal@tbb@@@8 10036e98     task.obj
 0003:00000eec       ??_R0?AVtype_info@@@8      10036eec     MSVCRTD:ti_inst.obj
 0003:00000f0c       ?_Generic_object@?$_Error_objects@H@std@@2V_Generic_error_category@2@A 10036f0c     concurrent_vector_v2.obj
 0003:00000f10       ?_Iostream_object@?$_Error_objects@H@std@@2V_Iostream_error_category@2@A 10036f10     concurrent_vector_v2.obj
 0003:00000f14       ?_System_object@?$_Error_objects@H@std@@2V_System_error_category@2@A 10036f14     concurrent_vector_v2.obj
 0003:00000f1c       ?id@?$num_put@DV?$back_insert_iterator@V?$basic_string@DU?$char_traits@D@std@@V?$allocator@D@2@@std@@@std@@@std@@2V0locale@2@A 10036f1c     concurrent_hash_map.obj
 0003:00000f20       ?id@?$num_put@_WV?$back_insert_iterator@V?$basic_string@_WU?$char_traits@_W@std@@V?$allocator@_W@2@@std@@@std@@@std@@2V0locale@2@A 10036f20     concurrent_hash_map.obj
 0003:00001f40       ?count@__TBB_InitOnce@internal@tbb@@0U?$atomic@H@3@A 10037f40     task.obj
 0003:00001f44       ?InitializationDone@__TBB_InitOnce@internal@tbb@@0_NA 10037f44     task.obj
 0003:00001f45       ?InitializationLock@__TBB_InitOnce@internal@tbb@@0EA 10037f45     task.obj
 0003:00001f48       ?theTLS@Governor@internal@tbb@@0V?$basic_tls@PAVGenericScheduler@internal@tbb@@@23@A 10037f48     task.obj
 0003:00001f4c       ?theArena@Governor@internal@tbb@@0PAVArena@23@A 10037f4c     task.obj
 0003:00002070       ?theArenaMutex@Governor@internal@tbb@@0Vmutex@3@A 10038070     task.obj
 0003:00002410       ?__type_info_root_node@@3U__type_info_node@@A 10038410     MSVCRTD:tncleanup.obj
 0003:0000241c       ?wsprintffp@@3P6AHPADPBDZZA 1003841c     MSVCRTD:error.obj
 0003:00002430       ___native_startup_lock     10038430     <common>
 0003:00002434       ___native_startup_state    10038434     <common>
 0003:00002438       ___dyn_tls_init_callback   10038438     <common>
 0003:0000243c       ___onexitend               1003843c     <common>
 0003:00002440       ___onexitbegin             10038440     <common>

 entry point at        0001:00022a50

 Static symbols

 0000:fffc3000       .debug$S                   10000000     MSVCRTD:MSVCR120D.dll
 0000:fffc3000       .debug$S                   10000000     MSVCRTD:MSVCR120D.dll
 0000:fffc3000       .debug$S                   10000000     MSVCRTD:MSVCR120D.dll
 0000:fffc3000       .debug$S                   10000000     MSVCRTD:MSVCR120D.dll
 0000:fffc3000       .debug$S                   10000000     MSVCRTD:MSVCR120D.dll
 0000:fffc3000       .debug$S                   10000000     MSVCRTD:MSVCR120D.dll
 0000:fffc3000       .debug$S                   10000000     MSVCRTD:MSVCR120D.dll
 0000:fffc3000       .debug$S                   10000000     MSVCRTD:MSVCR120D.dll
 0000:fffc3000       .debug$S                   10000000     MSVCRTD:MSVCR120D.dll
 0000:fffc3000       .debug$S                   10000000     MSVCRTD:MSVCR120D.dll
 0000:fffc3000       .debug$S                   10000000     MSVCRTD:MSVCR120D.dll
 0000:fffc3000       .debug$S                   10000000     MSVCRTD:MSVCR120D.dll
 0000:fffc3000       .debug$S                   10000000     MSVCRTD:MSVCR120D.dll
 0000:fffc3000       .debug$S                   10000000     MSVCRTD:MSVCR120D.dll
 0000:fffc3000       .debug$S                   10000000     MSVCRTD:MSVCR120D.dll
 0000:fffc3000       .debug$S                   10000000     MSVCRTD:MSVCR120D.dll
 0000:fffc3000       .debug$S                   10000000     MSVCRTD:MSVCR120D.dll
 0000:fffc3000       .debug$S                   10000000     MSVCRTD:MSVCR120D.dll
 0000:fffc3000       .debug$S                   10000000     MSVCRTD:MSVCR120D.dll
 0000:fffc3000       .debug$S                   10000000     MSVCRTD:MSVCR120D.dll
 0000:fffc3000       .debug$S                   10000000     MSVCRTD:MSVCR120D.dll
 0000:fffc3000       .debug$S                   10000000     MSVCRTD:MSVCR120D.dll
 0000:fffc3000       .debug$S                   10000000     MSVCRTD:MSVCR120D.dll
 0000:fffc3000       .debug$S                   10000000     MSVCRTD:MSVCR120D.dll
 0000:fffc3000       .debug$S                   10000000     MSVCRTD:MSVCR120D.dll
 0000:fffc3000       .debug$S                   10000000     MSVCRTD:MSVCR120D.dll
 0000:fffc3000       .debug$S                   10000000     MSVCRTD:MSVCR120D.dll
 0000:fffc3000       .debug$S                   10000000     MSVCRTD:MSVCR120D.dll
 0000:fffc3000       .debug$S                   10000000     MSVCRTD:MSVCR120D.dll
 0000:fffc3000       .debug$S                   10000000     MSVCRTD:MSVCR120D.dll
 0000:fffc3000       .debug$S                   10000000     MSVCRTD:MSVCR120D.dll
 0000:fffc3000       .debug$S                   10000000     MSVCRTD:MSVCR120D.dll
 0000:fffc3000       .debug$S                   10000000     MSVCRTD:MSVCR120D.dll
 0000:fffc3000       .debug$S                   10000000     MSVCRTD:MSVCR120D.dll
 0000:fffc3000       .debug$S                   10000000     MSVCRTD:MSVCR120D.dll
 0000:fffc3000       .debug$S                   10000000     MSVCRTD:MSVCR120D.dll
 0000:fffc3000       .debug$S                   10000000     MSVCRTD:MSVCR120D.dll
 0000:fffc3000       .debug$S                   10000000     MSVCRTD:MSVCR120D.dll
 0000:fffc3000       .debug$S                   10000000     MSVCRTD:MSVCR120D.dll
 0000:fffc3000       .debug$S                   10000000     MSVCRTD:MSVCR120D.dll
 0000:fffc3000       .debug$S                   10000000     MSVCRTD:MSVCR120D.dll
 0000:fffc3000       .debug$S                   10000000     MSVCRTD:MSVCR120D.dll
 0000:fffc3000       .debug$S                   10000000     MSVCRTD:MSVCR120D.dll
 0000:fffc3000       .debug$S                   10000000     MSVCRTD:MSVCR120D.dll
 0000:fffc3000       .debug$S                   10000000     MSVCRTD:MSVCR120D.dll
 0000:fffc3000       .debug$S                   10000000     MSVCRTD:MSVCR120D.dll
 0000:fffc3000       .debug$S                   10000000     MSVCRTD:MSVCR120D.dll
 0000:fffc3000       .debug$S                   10000000     MSVCRTD:MSVCR120D.dll
 0000:fffc3000       .debug$S                   10000000     MSVCRTD:MSVCR120D.dll
 0000:fffc3000       .debug$S                   10000000     MSVCRTD:MSVCR120D.dll
 0000:fffc3000       .debug$S                   10000000     MSVCRTD:MSVCR120D.dll
 0000:fffc3000       .debug$S                   10000000     MSVCRTD:MSVCR120D.dll
 0000:fffc3000       .debug$S                   10000000     MSVCRTD:MSVCR120D.dll
 0000:fffc3000       .debug$S                   10000000     MSVCRTD:MSVCR120D.dll
 0000:fffc3000       .debug$S                   10000000     MSVCRTD:MSVCR120D.dll
 0000:fffc3000       .debug$S                   10000000     MSVCRTD:MSVCR120D.dll
 0000:fffc3000       .debug$S                   10000000     MSVCRTD:MSVCR120D.dll
 0000:fffc3000       .debug$S                   10000000     MSVCRTD:MSVCR120D.dll
 0000:fffc3000       .debug$S                   10000000     MSVCRTD:MSVCR120D.dll
 0000:fffc3000       .debug$S                   10000000     MSVCRTD:MSVCR120D.dll
 0000:fffc3000       .debug$S                   10000000     MSVCRTD:MSVCR120D.dll
 0000:fffc3000       .debug$S                   10000000     MSVCRTD:MSVCR120D.dll
 0000:fffc3000       .debug$S                   10000000     MSVCRTD:MSVCR120D.dll
 0000:fffc3000       .debug$S                   10000000     MSVCRTD:MSVCR120D.dll
 0000:fffc3000       .debug$S                   10000000     MSVCRTD:MSVCR120D.dll
 0000:fffc3000       .debug$S                   10000000     MSVCRTD:MSVCR120D.dll
 0000:fffc3000       .debug$S                   10000000     MSVCRTD:MSVCR120D.dll
 0002:fffda000       __catchsym$?_Copy@?$basic_string@DU?$char_traits@D@std@@V?$allocator@D@2@@std@@QAEXII@Z$5 10000000     tbb_misc.obj
 0002:fffda000       __unwindtable$??0?$basic_string@DU?$char_traits@D@std@@V?$allocator@D@2@@std@@QAE@PBD@Z 10000000     tbb_misc.obj
 0002:fffda000       __unwindtable$??0?$_String_alloc@$0A@U?$_String_base_types@DV?$allocator@D@std@@@std@@@std@@QAE@ABV?$allocator@D@1@@Z 10000000     concurrent_vector.obj
 0002:fffda000       __unwindtable$??0?$_String_alloc@$0A@U?$_String_base_types@DV?$allocator@D@std@@@std@@@std@@QAE@ABV?$allocator@D@1@@Z 10000000     tbb_misc.obj
 0002:fffda000       __catchsym$?_Copy@?$basic_string@DU?$char_traits@D@std@@V?$allocator@D@2@@std@@QAEXII@Z$5 10000000     concurrent_vector.obj
 0001:fffff000       __unwindfunclet$??$construct@PADAAPAD@?$allocator@D@std@@QAEXPAPADAAPAD@Z$0 10000000 f   tbb_misc.obj
 0001:fffff000       __unwindfunclet$??$construct@U_Container_proxy@std@@U12@@?$allocator@U_Container_proxy@std@@@std@@QAEXPAU_Container_proxy@1@$$QAU21@@Z$0 10000000 f   tbb_misc.obj
 0001:fffff000       __unwindfunclet$??0?$_String_alloc@$0A@U?$_String_base_types@DV?$allocator@D@std@@@std@@@std@@QAE@ABV?$allocator@D@1@@Z$0 10000000 f   concurrent_vector.obj
 0002:fffda000       __unwindtable$??$construct@U_Container_proxy@std@@U12@@?$allocator@U_Container_proxy@std@@@std@@QAEXPAU_Container_proxy@1@$$QAU21@@Z 10000000     concurrent_vector.obj
 0001:fffff000       __unwindfunclet$??$construct@U_Container_proxy@std@@U12@@?$allocator@U_Container_proxy@std@@@std@@QAEXPAU_Container_proxy@1@$$QAU21@@Z$0 10000000 f   concurrent_queue.obj
 0002:fffda000       __unwindtable$??$construct@U_Container_proxy@std@@U12@@?$allocator@U_Container_proxy@std@@@std@@QAEXPAU_Container_proxy@1@$$QAU21@@Z 10000000     tbb_misc.obj
 0001:fffff000       __unwindfunclet$??$construct@PADAAPAD@?$allocator@D@std@@QAEXPAPADAAPAD@Z$0 10000000 f   concurrent_queue.obj
 0002:fffda000       __unwindtable$??$construct@PADAAPAD@?$allocator@D@std@@QAEXPAPADAAPAD@Z 10000000     concurrent_vector.obj
 0002:fffda000       __unwindtable$??0?$_String_alloc@$0A@U?$_String_base_types@DV?$allocator@D@std@@@std@@@std@@QAE@ABV?$allocator@D@1@@Z 10000000     concurrent_queue.obj
 0002:fffda000       ?_Generic_object$initializer$@?$_Error_objects@H@std@@2P6AXXZA 10000000     concurrent_vector.obj
 0002:fffda000       __unwindtable$??0?$basic_string@DU?$char_traits@D@std@@V?$allocator@D@2@@std@@QAE@PBD@Z 10000000     concurrent_queue.obj
 0000:fffc3000       .debug$S                   10000000     msvcprtd:MSVCP120D.dll
 0000:fffc3000       .debug$S                   10000000     msvcprtd:MSVCP120D.dll
 0000:fffc3000       .debug$S                   10000000     msvcprtd:MSVCP120D.dll
 0000:fffc3000       .debug$S                   10000000     msvcprtd:MSVCP120D.dll
 0000:fffc3000       .debug$S                   10000000     msvcprtd:MSVCP120D.dll
 0000:fffc3000       .debug$S                   10000000     msvcprtd:MSVCP120D.dll
 0000:fffc3000       .debug$S                   10000000     msvcprtd:MSVCP120D.dll
 0000:fffc3000       .debug$S                   10000000     msvcprtd:MSVCP120D.dll
 0000:fffc3000       .debug$S                   10000000     msvcprtd:MSVCP120D.dll
 0000:fffc3000       .debug$S                   10000000     msvcprtd:MSVCP120D.dll
 0000:fffc3000       .debug$S                   10000000     kernel32:KERNEL32.dll
 0000:fffc3000       .debug$S                   10000000     kernel32:KERNEL32.dll
 0000:fffc3000       .debug$S                   10000000     kernel32:KERNEL32.dll
 0000:fffc3000       .debug$S                   10000000     kernel32:KERNEL32.dll
 0000:fffc3000       .debug$S                   10000000     kernel32:KERNEL32.dll
 0000:fffc3000       .debug$S                   10000000     kernel32:KERNEL32.dll
 0000:fffc3000       .debug$S                   10000000     kernel32:KERNEL32.dll
 0000:fffc3000       .debug$S                   10000000     kernel32:KERNEL32.dll
 0000:fffc3000       .debug$S                   10000000     kernel32:KERNEL32.dll
 0000:fffc3000       .debug$S                   10000000     kernel32:KERNEL32.dll
 0000:fffc3000       .debug$S                   10000000     kernel32:KERNEL32.dll
 0000:fffc3000       .debug$S                   10000000     kernel32:KERNEL32.dll
 0000:fffc3000       .debug$S                   10000000     kernel32:KERNEL32.dll
 0000:fffc3000       .debug$S                   10000000     kernel32:KERNEL32.dll
 0000:fffc3000       .debug$S                   10000000     kernel32:KERNEL32.dll
 0000:fffc3000       .debug$S                   10000000     kernel32:KERNEL32.dll
 0000:fffc3000       .debug$S                   10000000     kernel32:KERNEL32.dll
 0000:fffc3000       .debug$S                   10000000     kernel32:KERNEL32.dll
 0000:fffc3000       .debug$S                   10000000     kernel32:KERNEL32.dll
 0000:fffc3000       .debug$S                   10000000     kernel32:KERNEL32.dll
 0000:fffc3000       .debug$S                   10000000     kernel32:KERNEL32.dll
 0000:fffc3000       .debug$S                   10000000     kernel32:KERNEL32.dll
 0000:fffc3000       .debug$S                   10000000     kernel32:KERNEL32.dll
 0000:fffc3000       .debug$S                   10000000     kernel32:KERNEL32.dll
 0000:fffc3000       .debug$S                   10000000     kernel32:KERNEL32.dll
 0000:fffc3000       .debug$S                   10000000     kernel32:KERNEL32.dll
 0000:fffc3000       .debug$S                   10000000     kernel32:KERNEL32.dll
 0000:fffc3000       .debug$S                   10000000     kernel32:KERNEL32.dll
 0000:fffc3000       .debug$S                   10000000     kernel32:KERNEL32.dll
 0000:fffc3000       .debug$S                   10000000     kernel32:KERNEL32.dll
 0000:fffc3000       .debug$S                   10000000     kernel32:KERNEL32.dll
 0000:fffc3000       .debug$S                   10000000     kernel32:KERNEL32.dll
 0000:fffc3000       .debug$S                   10000000     kernel32:KERNEL32.dll
 0000:fffc3000       .debug$S                   10000000     kernel32:KERNEL32.dll
 0000:fffc3000       .debug$S                   10000000     kernel32:KERNEL32.dll
 0000:fffc3000       .debug$S                   10000000     kernel32:KERNEL32.dll
 0000:fffc3000       .debug$S                   10000000     kernel32:KERNEL32.dll
 0000:fffc3000       .debug$S                   10000000     kernel32:KERNEL32.dll
 0000:fffc3000       .debug$S                   10000000     kernel32:KERNEL32.dll
 0000:fffc3000       .debug$S                   10000000     kernel32:KERNEL32.dll
 0000:fffc3000       .debug$S                   10000000     kernel32:KERNEL32.dll
 0000:fffc3000       .debug$S                   10000000     kernel32:KERNEL32.dll
 0000:fffc3000       .debug$S                   10000000     kernel32:KERNEL32.dll
 0000:fffc3000       .debug$S                   10000000     kernel32:KERNEL32.dll
 0000:fffc3000       .debug$S                   10000000     kernel32:KERNEL32.dll
 0000:fffc3000       .debug$S                   10000000     kernel32:KERNEL32.dll
 0002:fffda000       ?_Iostream_object$initializer$@?$_Error_objects@H@std@@2P6AXXZA 10000000     concurrent_vector.obj
 0002:fffda000       __unwindtable$??$construct@PADAAPAD@?$allocator@D@std@@QAEXPAPADAAPAD@Z 10000000     tbb_misc.obj
 0002:fffda000       ?_System_object$initializer$@?$_Error_objects@H@std@@2P6AXXZA 10000000     concurrent_vector.obj
 0001:fffff000       __unwindfunclet$??0?$basic_string@DU?$char_traits@D@std@@V?$allocator@D@2@@std@@QAE@PBD@Z$0 10000000 f   concurrent_vector.obj
 0002:fffda000       __catchsym$?_Copy@?$basic_string@DU?$char_traits@D@std@@V?$allocator@D@2@@std@@QAEXII@Z$5 10000000     concurrent_queue.obj
 0001:fffff000       __ehhandler$?_Copy@?$basic_string@DU?$char_traits@D@std@@V?$allocator@D@2@@std@@QAEXII@Z 10000000 f   tbb_thread.obj
 0002:fffda000       __unwindtable$??$construct@U_Container_proxy@std@@U12@@?$allocator@U_Container_proxy@std@@@std@@QAEXPAU_Container_proxy@1@$$QAU21@@Z 10000000     concurrent_queue.obj
 0001:fffff000       __unwindfunclet$??0?$basic_string@DU?$char_traits@D@std@@V?$allocator@D@2@@std@@QAE@PBD@Z$0 10000000 f   tbb_thread.obj
 0002:fffda000       __unwindtable$??$construct@PADAAPAD@?$allocator@D@std@@QAEXPAPADAAPAD@Z 10000000     concurrent_queue.obj
 0002:fffda000       ?_Generic_object$initializer$@?$_Error_objects@H@std@@2P6AXXZA 10000000     concurrent_queue.obj
 0002:fffda000       ?_Iostream_object$initializer$@?$_Error_objects@H@std@@2P6AXXZA 10000000     concurrent_queue.obj
 0002:fffda000       ?_System_object$initializer$@?$_Error_objects@H@std@@2P6AXXZA 10000000     concurrent_queue.obj
 0001:fffff000       __ehhandler$?_Copy@?$basic_string@DU?$char_traits@D@std@@V?$allocator@D@2@@std@@QAEXII@Z 10000000 f   concurrent_queue.obj
 0001:fffff000       __unwindfunclet$??0?$basic_string@DU?$char_traits@D@std@@V?$allocator@D@2@@std@@QAE@PBD@Z$0 10000000 f   concurrent_queue.obj
 0001:fffff000       __unwindfunclet$??$construct@PADAAPAD@?$allocator@D@std@@QAEXPAPADAAPAD@Z$0 10000000 f   concurrent_vector.obj
 0001:fffff000       __unwindfunclet$??$construct@U_Container_proxy@std@@U12@@?$allocator@U_Container_proxy@std@@@std@@QAEXPAU_Container_proxy@1@$$QAU21@@Z$0 10000000 f   concurrent_vector.obj
 0001:fffff000       __unwindfunclet$??0?$_String_alloc@$0A@U?$_String_base_types@DV?$allocator@D@std@@@std@@@std@@QAE@ABV?$allocator@D@1@@Z$0 10000000 f   concurrent_hash_map.obj
 0001:fffff000       __ehhandler$?_Copy@?$basic_string@DU?$char_traits@D@std@@V?$allocator@D@2@@std@@QAEXII@Z 10000000 f   concurrent_vector.obj
 0002:fffda000       ?_Generic_object$initializer$@?$_Error_objects@H@std@@2P6AXXZA 10000000     tbb_misc.obj
 0001:fffff000       __ehhandler$?_Copy@?$basic_string@DU?$char_traits@D@std@@V?$allocator@D@2@@std@@QAEXII@Z 10000000 f   tbb_misc.obj
 0001:fffff000       __unwindfunclet$??0?$basic_string@DU?$char_traits@D@std@@V?$allocator@D@2@@std@@QAE@PBD@Z$0 10000000 f   tbb_misc.obj
 0001:fffff000       __unwindfunclet$??$construct@U_Container_proxy@std@@U12@@?$allocator@U_Container_proxy@std@@@std@@QAEXPAU_Container_proxy@1@$$QAU21@@Z$0 10000000 f   tbb_thread.obj
 0001:fffff000       __unwindfunclet$??$construct@PADAAPAD@?$allocator@D@std@@QAEXPAPADAAPAD@Z$0 10000000 f   tbb_thread.obj
 0001:fffff000       __unwindfunclet$??0?$basic_string@DU?$char_traits@D@std@@V?$allocator@D@2@@std@@QAE@PBD@Z$0 10000000 f   concurrent_hash_map.obj
 0001:fffff000       __ehhandler$?_Copy@?$basic_string@DU?$char_traits@D@std@@V?$allocator@D@2@@std@@QAEXII@Z 10000000 f   concurrent_hash_map.obj
 0002:fffda000       ?_Iostream_object$initializer$@?$_Error_objects@H@std@@2P6AXXZA 10000000     tbb_misc.obj
 0001:fffff000       __unwindfunclet$??0?$_String_alloc@$0A@U?$_String_base_types@DV?$allocator@D@std@@@std@@@std@@QAE@ABV?$allocator@D@1@@Z$0 10000000 f   tbb_misc.obj
 0002:fffda000       __unwindtable$??0?$_String_alloc@$0A@U?$_String_base_types@DV?$allocator@D@std@@@std@@@std@@QAE@ABV?$allocator@D@1@@Z 10000000     tbb_thread.obj
 0001:fffff000       __unwindfunclet$??0?$_String_alloc@$0A@U?$_String_base_types@DV?$allocator@D@std@@@std@@@std@@QAE@ABV?$allocator@D@1@@Z$0 10000000 f   tbb_thread.obj
 0001:fffff000       __unwindfunclet$??$construct@U_Container_proxy@std@@U12@@?$allocator@U_Container_proxy@std@@@std@@QAEXPAU_Container_proxy@1@$$QAU21@@Z$0 10000000 f   concurrent_hash_map.obj
 0002:fffda000       ?_System_object$initializer$@?$_Error_objects@H@std@@2P6AXXZA 10000000     tbb_misc.obj
 0001:fffff000       __unwindfunclet$??$construct@PADAAPAD@?$allocator@D@std@@QAEXPAPADAAPAD@Z$0 10000000 f   concurrent_hash_map.obj
 0002:fffda000       __unwindtable$??0?$basic_string@DU?$char_traits@D@std@@V?$allocator@D@2@@std@@QAE@PBD@Z 10000000     tbb_thread.obj
 0002:fffda000       __unwindtable$??0?$_String_alloc@$0A@U?$_String_base_types@DV?$allocator@D@std@@@std@@@std@@QAE@ABV?$allocator@D@1@@Z 10000000     concurrent_hash_map.obj
 0002:fffda000       __catchsym$?_Copy@?$basic_string@DU?$char_traits@D@std@@V?$allocator@D@2@@std@@QAEXII@Z$5 10000000     tbb_thread.obj
 0002:fffda000       __unwindtable$??0?$basic_string@DU?$char_traits@D@std@@V?$allocator@D@2@@std@@QAE@PBD@Z 10000000     concurrent_hash_map.obj
 0002:fffda000       ?id$initializer$@?$num_put@DV?$back_insert_iterator@V?$basic_string@DU?$char_traits@D@std@@V?$allocator@D@2@@std@@@std@@@std@@2P6AXXZA 10000000     tbb_misc.obj
 0002:fffda000       ?id$initializer$@?$num_put@_WV?$back_insert_iterator@V?$basic_string@_WU?$char_traits@_W@std@@V?$allocator@_W@2@@std@@@std@@@std@@2P6AXXZA 10000000     tbb_misc.obj
 0002:fffda000       ?id$initializer$@?$num_put@_WV?$back_insert_iterator@V?$basic_string@_WU?$char_traits@_W@std@@V?$allocator@_W@2@@std@@@std@@@std@@2P6AXXZA 10000000     tbb_thread.obj
 0002:fffda000       ?id$initializer$@?$num_put@DV?$back_insert_iterator@V?$basic_string@DU?$char_traits@D@std@@V?$allocator@D@2@@std@@@std@@@std@@2P6AXXZA 10000000     tbb_thread.obj
 0002:fffda000       __catchsym$?_Copy@?$basic_string@DU?$char_traits@D@std@@V?$allocator@D@2@@std@@QAEXII@Z$5 10000000     concurrent_hash_map.obj
 0002:fffda000       __unwindtable$??$construct@U_Container_proxy@std@@U12@@?$allocator@U_Container_proxy@std@@@std@@QAEXPAU_Container_proxy@1@$$QAU21@@Z 10000000     tbb_thread.obj
 0002:fffda000       __unwindtable$??$construct@U_Container_proxy@std@@U12@@?$allocator@U_Container_proxy@std@@@std@@QAEXPAU_Container_proxy@1@$$QAU21@@Z 10000000     concurrent_hash_map.obj
 0001:fffff000       __unwindfunclet$??0?$_String_alloc@$0A@U?$_String_base_types@DV?$allocator@D@std@@@std@@@std@@QAE@ABV?$allocator@D@1@@Z$0 10000000 f   concurrent_queue.obj
 0002:fffda000       __unwindtable$??$construct@PADAAPAD@?$allocator@D@std@@QAEXPAPADAAPAD@Z 10000000     concurrent_hash_map.obj
 0002:fffda000       ?_System_object$initializer$@?$_Error_objects@H@std@@2P6AXXZA 10000000     tbb_thread.obj
 0002:fffda000       ?_Generic_object$initializer$@?$_Error_objects@H@std@@2P6AXXZA 10000000     concurrent_hash_map.obj
 0002:fffda000       ?_Iostream_object$initializer$@?$_Error_objects@H@std@@2P6AXXZA 10000000     concurrent_hash_map.obj
 0002:fffda000       ?_System_object$initializer$@?$_Error_objects@H@std@@2P6AXXZA 10000000     concurrent_hash_map.obj
 0002:fffda000       ?_Iostream_object$initializer$@?$_Error_objects@H@std@@2P6AXXZA 10000000     tbb_thread.obj
 0002:fffda000       ?_Generic_object$initializer$@?$_Error_objects@H@std@@2P6AXXZA 10000000     tbb_thread.obj
 0002:fffda000       __unwindtable$??$construct@PADAAPAD@?$allocator@D@std@@QAEXPAPADAAPAD@Z 10000000     tbb_thread.obj
 0002:fffda000       __unwindtable$??0?$basic_string@DU?$char_traits@D@std@@V?$allocator@D@2@@std@@QAE@PBD@Z 10000000     concurrent_vector.obj
 0002:fffda008       __ehfuncinfo$??$construct@PADAAPAD@?$allocator@D@std@@QAEXPAPADAAPAD@Z 10000008     concurrent_hash_map.obj
 0001:fffff008       __ehhandler$??0?$_String_alloc@$0A@U?$_String_base_types@DV?$allocator@D@std@@@std@@@std@@QAE@ABV?$allocator@D@1@@Z 10000008 f   concurrent_queue.obj
 0002:fffda008       __ehfuncinfo$??$construct@U_Container_proxy@std@@U12@@?$allocator@U_Container_proxy@std@@@std@@QAEXPAU_Container_proxy@1@$$QAU21@@Z 10000008     concurrent_hash_map.obj
 0002:fffda008       __ehfuncinfo$??$construct@U_Container_proxy@std@@U12@@?$allocator@U_Container_proxy@std@@@std@@QAEXPAU_Container_proxy@1@$$QAU21@@Z 10000008     tbb_thread.obj
 0002:fffda008       __ehfuncinfo$??0?$basic_string@DU?$char_traits@D@std@@V?$allocator@D@2@@std@@QAE@PBD@Z 10000008     concurrent_hash_map.obj
 0002:fffda008       __ehfuncinfo$??0?$_String_alloc@$0A@U?$_String_base_types@DV?$allocator@D@std@@@std@@@std@@QAE@ABV?$allocator@D@1@@Z 10000008     concurrent_hash_map.obj
 0002:fffda008       __ehfuncinfo$??0?$basic_string@DU?$char_traits@D@std@@V?$allocator@D@2@@std@@QAE@PBD@Z 10000008     tbb_thread.obj
 0001:fffff008       __ehhandler$??0?$_String_alloc@$0A@U?$_String_base_types@DV?$allocator@D@std@@@std@@@std@@QAE@ABV?$allocator@D@1@@Z 10000008 f   tbb_thread.obj
 0002:fffda008       __ehfuncinfo$??$construct@U_Container_proxy@std@@U12@@?$allocator@U_Container_proxy@std@@@std@@QAEXPAU_Container_proxy@1@$$QAU21@@Z 10000008     tbb_misc.obj
 0001:fffff008       __ehhandler$??0?$_String_alloc@$0A@U?$_String_base_types@DV?$allocator@D@std@@@std@@@std@@QAE@ABV?$allocator@D@1@@Z 10000008 f   tbb_misc.obj
 0002:fffda008       __ehfuncinfo$??0?$_String_alloc@$0A@U?$_String_base_types@DV?$allocator@D@std@@@std@@@std@@QAE@ABV?$allocator@D@1@@Z 10000008     tbb_thread.obj
 0001:fffff008       __ehhandler$??0?$basic_string@DU?$char_traits@D@std@@V?$allocator@D@2@@std@@QAE@PBD@Z 10000008 f   concurrent_hash_map.obj
 0001:fffff008       __ehhandler$??0?$basic_string@DU?$char_traits@D@std@@V?$allocator@D@2@@std@@QAE@PBD@Z 10000008 f   tbb_misc.obj
 0001:fffff008       __ehhandler$??0?$_String_alloc@$0A@U?$_String_base_types@DV?$allocator@D@std@@@std@@@std@@QAE@ABV?$allocator@D@1@@Z 10000008 f   concurrent_hash_map.obj
 0001:fffff008       __ehhandler$??0?$basic_string@DU?$char_traits@D@std@@V?$allocator@D@2@@std@@QAE@PBD@Z 10000008 f   concurrent_queue.obj
 0001:fffff008       __ehhandler$??0?$basic_string@DU?$char_traits@D@std@@V?$allocator@D@2@@std@@QAE@PBD@Z 10000008 f   tbb_thread.obj
 0002:fffda008       __ehfuncinfo$??$construct@PADAAPAD@?$allocator@D@std@@QAEXPAPADAAPAD@Z 10000008     concurrent_queue.obj
 0002:fffda008       __ehfuncinfo$??$construct@U_Container_proxy@std@@U12@@?$allocator@U_Container_proxy@std@@@std@@QAEXPAU_Container_proxy@1@$$QAU21@@Z 10000008     concurrent_queue.obj
 0001:fffff008       __ehhandler$??0?$basic_string@DU?$char_traits@D@std@@V?$allocator@D@2@@std@@QAE@PBD@Z 10000008 f   concurrent_vector.obj
 0002:fffda008       __ehfuncinfo$??$construct@PADAAPAD@?$allocator@D@std@@QAEXPAPADAAPAD@Z 10000008     tbb_misc.obj
 0002:fffda008       __ehfuncinfo$??0?$basic_string@DU?$char_traits@D@std@@V?$allocator@D@2@@std@@QAE@PBD@Z 10000008     concurrent_queue.obj
 0002:fffda008       __ehfuncinfo$??0?$_String_alloc@$0A@U?$_String_base_types@DV?$allocator@D@std@@@std@@@std@@QAE@ABV?$allocator@D@1@@Z 10000008     concurrent_queue.obj
 0002:fffda008       __ehfuncinfo$??$construct@PADAAPAD@?$allocator@D@std@@QAEXPAPADAAPAD@Z 10000008     concurrent_vector.obj
 0001:fffff008       __ehhandler$??0?$_String_alloc@$0A@U?$_String_base_types@DV?$allocator@D@std@@@std@@@std@@QAE@ABV?$allocator@D@1@@Z 10000008 f   concurrent_vector.obj
 0002:fffda008       __ehfuncinfo$??$construct@U_Container_proxy@std@@U12@@?$allocator@U_Container_proxy@std@@@std@@QAEXPAU_Container_proxy@1@$$QAU21@@Z 10000008     concurrent_vector.obj
 0002:fffda008       __ehfuncinfo$??0?$_String_alloc@$0A@U?$_String_base_types@DV?$allocator@D@std@@@std@@@std@@QAE@ABV?$allocator@D@1@@Z 10000008     tbb_misc.obj
 0002:fffda008       __ehfuncinfo$??0?$_String_alloc@$0A@U?$_String_base_types@DV?$allocator@D@std@@@std@@@std@@QAE@ABV?$allocator@D@1@@Z 10000008     concurrent_vector.obj
 0002:fffda008       __ehfuncinfo$??0?$basic_string@DU?$char_traits@D@std@@V?$allocator@D@2@@std@@QAE@PBD@Z 10000008     tbb_misc.obj
 0002:fffda008       __ehfuncinfo$??0?$basic_string@DU?$char_traits@D@std@@V?$allocator@D@2@@std@@QAE@PBD@Z 10000008     concurrent_vector.obj
 0002:fffda008       __ehfuncinfo$??$construct@PADAAPAD@?$allocator@D@std@@QAEXPAPADAAPAD@Z 10000008     tbb_thread.obj
 0002:fffda010       __catchsym$?_Copy@?$basic_string@DU?$char_traits@D@std@@V?$allocator@D@2@@std@@QAEXII@Z$4 10000010     concurrent_hash_map.obj
 0002:fffda010       __catchsym$?_Copy@?$basic_string@DU?$char_traits@D@std@@V?$allocator@D@2@@std@@QAEXII@Z$4 10000010     tbb_misc.obj
 0002:fffda010       __catchsym$?_Copy@?$basic_string@DU?$char_traits@D@std@@V?$allocator@D@2@@std@@QAEXII@Z$4 10000010     concurrent_vector.obj
 0002:fffda010       __catchsym$?_Copy@?$basic_string@DU?$char_traits@D@std@@V?$allocator@D@2@@std@@QAEXII@Z$4 10000010     concurrent_queue.obj
 0002:fffda010       __catchsym$?_Copy@?$basic_string@DU?$char_traits@D@std@@V?$allocator@D@2@@std@@QAEXII@Z$4 10000010     tbb_thread.obj
 0001:fffff011       __ehhandler$??$construct@PADAAPAD@?$allocator@D@std@@QAEXPAPADAAPAD@Z 10000011 f   concurrent_vector.obj
 0001:fffff011       __ehhandler$??$construct@PADAAPAD@?$allocator@D@std@@QAEXPAPADAAPAD@Z 10000011 f   concurrent_hash_map.obj
 0001:fffff011       __ehhandler$??$construct@U_Container_proxy@std@@U12@@?$allocator@U_Container_proxy@std@@@std@@QAEXPAU_Container_proxy@1@$$QAU21@@Z 10000011 f   concurrent_vector.obj
 0001:fffff011       __ehhandler$??$construct@PADAAPAD@?$allocator@D@std@@QAEXPAPADAAPAD@Z 10000011 f   tbb_misc.obj
 0001:fffff011       __ehhandler$??$construct@U_Container_proxy@std@@U12@@?$allocator@U_Container_proxy@std@@@std@@QAEXPAU_Container_proxy@1@$$QAU21@@Z 10000011 f   tbb_misc.obj
 0001:fffff011       __ehhandler$??$construct@U_Container_proxy@std@@U12@@?$allocator@U_Container_proxy@std@@@std@@QAEXPAU_Container_proxy@1@$$QAU21@@Z 10000011 f   concurrent_queue.obj
 0001:fffff011       __ehhandler$??$construct@PADAAPAD@?$allocator@D@std@@QAEXPAPADAAPAD@Z 10000011 f   concurrent_queue.obj
 0001:fffff011       __ehhandler$??$construct@U_Container_proxy@std@@U12@@?$allocator@U_Container_proxy@std@@@std@@QAEXPAU_Container_proxy@1@$$QAU21@@Z 10000011 f   concurrent_hash_map.obj
 0001:fffff011       __ehhandler$??$construct@U_Container_proxy@std@@U12@@?$allocator@U_Container_proxy@std@@@std@@QAEXPAU_Container_proxy@1@$$QAU21@@Z 10000011 f   tbb_thread.obj
 0001:fffff011       __ehhandler$??$construct@PADAAPAD@?$allocator@D@std@@QAEXPAPADAAPAD@Z 10000011 f   tbb_thread.obj
 0002:fffda020       __unwindtable$?_Copy@?$basic_string@DU?$char_traits@D@std@@V?$allocator@D@2@@std@@QAEXII@Z 10000020     concurrent_queue.obj
 0002:fffda020       __unwindtable$?_Copy@?$basic_string@DU?$char_traits@D@std@@V?$allocator@D@2@@std@@QAEXII@Z 10000020     tbb_thread.obj
 0002:fffda020       __unwindtable$?_Copy@?$basic_string@DU?$char_traits@D@std@@V?$allocator@D@2@@std@@QAEXII@Z 10000020     tbb_misc.obj
 0002:fffda020       __unwindtable$?_Copy@?$basic_string@DU?$char_traits@D@std@@V?$allocator@D@2@@std@@QAEXII@Z 10000020     concurrent_hash_map.obj
 0002:fffda020       __unwindtable$?_Copy@?$basic_string@DU?$char_traits@D@std@@V?$allocator@D@2@@std@@QAEXII@Z 10000020     concurrent_vector.obj
 0002:fffda040       __ehfuncinfo$?_Copy@?$basic_string@DU?$char_traits@D@std@@V?$allocator@D@2@@std@@QAEXII@Z 10000040     tbb_thread.obj
 0002:fffda040       __ehfuncinfo$?_Copy@?$basic_string@DU?$char_traits@D@std@@V?$allocator@D@2@@std@@QAEXII@Z 10000040     tbb_misc.obj
 0002:fffda040       __ehfuncinfo$?_Copy@?$basic_string@DU?$char_traits@D@std@@V?$allocator@D@2@@std@@QAEXII@Z 10000040     concurrent_vector.obj
 0002:fffda040       __ehfuncinfo$?_Copy@?$basic_string@DU?$char_traits@D@std@@V?$allocator@D@2@@std@@QAEXII@Z 10000040     concurrent_hash_map.obj
 0002:fffda040       __ehfuncinfo$?_Copy@?$basic_string@DU?$char_traits@D@std@@V?$allocator@D@2@@std@@QAEXII@Z 10000040     concurrent_queue.obj
 0001:fffff04c       $LN5                       1000004c     task.obj
 0001:fffff04c       $LN5                       1000004c     concurrent_queue.obj
 0001:fffff04c       $LN5                       1000004c     concurrent_hash_map.obj
 0001:fffff04c       $LN5                       1000004c     concurrent_vector_v2.obj
 0001:fffff04c       $LN5                       1000004c     task.obj
 0001:fffff04c       $LN5                       1000004c     concurrent_vector.obj
 0001:fffff054       $LN5                       10000054     concurrent_vector.obj
 0001:fffff054       $LN5                       10000054     concurrent_vector_v2.obj
 0001:fffff054       $LN4                       10000054     concurrent_vector_v2.obj
 0001:fffff054       $LN4                       10000054     concurrent_hash_map.obj
 0001:fffff054       $LN4                       10000054     concurrent_vector.obj
 0001:fffff054       $LN4                       10000054     concurrent_queue.obj
 0001:fffff054       $LN4                       10000054     task.obj
 0001:fffff054       $LN5                       10000054     task.obj
 0001:fffff054       $LN4                       10000054     task.obj
 0001:fffff054       $LN5                       10000054     concurrent_queue.obj
 0001:fffff054       $LN5                       10000054     task.obj
 0001:fffff058       $LN7                       10000058     concurrent_vector.obj
 0001:fffff05c       $LN7                       1000005c     concurrent_vector.obj
 0001:fffff05c       $LN4                       1000005c     concurrent_vector.obj
 0001:fffff05c       $LN4                       1000005c     task.obj
 0001:fffff05c       $LN4                       1000005c     task.obj
 0001:fffff05c       $LN7                       1000005c     concurrent_queue.obj
 0001:fffff05c       $LN4                       1000005c     concurrent_queue.obj
 0001:fffff05c       $LN4                       1000005c     concurrent_vector_v2.obj
 0001:fffff05c       $LN7                       1000005c     concurrent_queue.obj
 0001:fffff060       $LN3                       10000060     task.obj
 0001:fffff060       $LN3                       10000060     concurrent_vector_v2.obj
 0001:fffff060       $LN6                       10000060     concurrent_vector.obj
 0001:fffff060       $LN3                       10000060     concurrent_vector.obj
 0001:fffff060       $LN3                       10000060     concurrent_queue.obj
 0001:fffff060       $LN3                       10000060     concurrent_hash_map.obj
 0001:fffff060       $LN3                       10000060     task.obj
 0001:fffff064       $LN6                       10000064     concurrent_queue.obj
 0001:fffff064       $LN7                       10000064     task.obj
 0001:fffff064       $LN6                       10000064     concurrent_queue.obj
 0002:fffda064       __tryblocktable$?_Copy@?$basic_string@DU?$char_traits@D@std@@V?$allocator@D@2@@std@@QAEXII@Z 10000064     tbb_misc.obj
 0001:fffff064       $LN6                       10000064     concurrent_vector.obj
 0001:fffff064       $LN7                       10000064     concurrent_vector_v2.obj
 0002:fffda064       __tryblocktable$?_Copy@?$basic_string@DU?$char_traits@D@std@@V?$allocator@D@2@@std@@QAEXII@Z 10000064     concurrent_vector.obj
 0002:fffda064       __tryblocktable$?_Copy@?$basic_string@DU?$char_traits@D@std@@V?$allocator@D@2@@std@@QAEXII@Z 10000064     concurrent_queue.obj
 0002:fffda064       __tryblocktable$?_Copy@?$basic_string@DU?$char_traits@D@std@@V?$allocator@D@2@@std@@QAEXII@Z 10000064     tbb_thread.obj
 0001:fffff064       $LN7                       10000064     task.obj
 0002:fffda064       __tryblocktable$?_Copy@?$basic_string@DU?$char_traits@D@std@@V?$allocator@D@2@@std@@QAEXII@Z 10000064     concurrent_hash_map.obj
 0001:fffff064       $LN7                       10000064     concurrent_vector.obj
 0001:fffff064       $LN7                       10000064     concurrent_queue.obj
 0001:fffff068       $LN3                       10000068     concurrent_queue.obj
 0001:fffff068       $LN3                       10000068     task.obj
 0001:fffff068       $LN3                       10000068     task.obj
 0001:fffff068       $LN3                       10000068     concurrent_vector.obj
 0001:fffff068       $LN3                       10000068     concurrent_vector_v2.obj
 0001:fffff06c       $LN6                       1000006c     task.obj
 0001:fffff06c       $LN6                       1000006c     task.obj
 0001:fffff06c       $LN6                       1000006c     concurrent_queue.obj
 0001:fffff06c       $LN6                       1000006c     concurrent_vector.obj
 0001:fffff06c       $LN5                       1000006c     concurrent_vector.obj
 0001:fffff06c       $LN6                       1000006c     concurrent_vector_v2.obj
 0001:fffff070       $LN5                       10000070     concurrent_queue.obj
 0001:fffff070       $LN5                       10000070     concurrent_vector.obj
 0001:fffff070       $LN5                       10000070     concurrent_queue.obj
 0001:fffff074       $LN9                       10000074     task.obj
 0001:fffff078       $LN5                       10000078     concurrent_hash_map.obj
 0001:fffff078       $LN5                       10000078     tbb_misc.obj
 0001:fffff078       $LN5                       10000078     tbb_thread.obj
 0001:fffff078       $LN5                       10000078     concurrent_vector.obj
 0001:fffff078       $LN5                       10000078     concurrent_queue.obj
 0001:fffff07c       $LN8                       1000007c     task.obj
 0001:fffff07c       $LN5                       1000007c     tbb_thread.obj
 0001:fffff07c       $LN5                       1000007c     tbb_misc.obj
 0001:fffff07c       $LN5                       1000007c     concurrent_hash_map.obj
 0001:fffff07c       $LN5                       1000007c     concurrent_queue.obj
 0001:fffff07c       $LN5                       1000007c     concurrent_vector.obj
 0001:fffff080       $LN4                       10000080     concurrent_vector.obj
 0001:fffff080       $LN4                       10000080     concurrent_hash_map.obj
 0001:fffff080       $LN4                       10000080     tbb_misc.obj
 0001:fffff080       $LN4                       10000080     tbb_thread.obj
 0001:fffff080       $LN4                       10000080     concurrent_queue.obj
 0001:fffff084       $LN4                       10000084     tbb_thread.obj
 0001:fffff084       $LN4                       10000084     concurrent_queue.obj
 0001:fffff084       $LN4                       10000084     concurrent_vector.obj
 0001:fffff084       $LN4                       10000084     tbb_misc.obj
 0001:fffff084       $LN4                       10000084     concurrent_hash_map.obj
 0001:fffff088       $LN7                       10000088     task.obj
 0001:fffff08c       $LN3                       1000008c     concurrent_queue.obj
 0001:fffff08c       $LN3                       1000008c     concurrent_hash_map.obj
 0001:fffff08c       $LN3                       1000008c     concurrent_vector.obj
 0001:fffff08c       $LN3                       1000008c     tbb_misc.obj
 0001:fffff08c       $LN3                       1000008c     tbb_thread.obj
 0001:fffff090       $LN5                       10000090     concurrent_queue.obj
 0001:fffff090       $LN5                       10000090     task.obj
 0001:fffff090       $LN3                       10000090     tbb_thread.obj
 0001:fffff090       $LN5                       10000090     task.obj
 0001:fffff090       $LN5                       10000090     concurrent_vector.obj
 0001:fffff090       $LN5                       10000090     concurrent_vector_v2.obj
 0001:fffff090       $LN3                       10000090     concurrent_vector.obj
 0001:fffff090       $LN3                       10000090     concurrent_hash_map.obj
 0001:fffff090       $LN3                       10000090     concurrent_queue.obj
 0001:fffff090       $LN3                       10000090     tbb_misc.obj
 0001:fffff092       $LN4                       10000092     task.obj
 0001:fffff092       $LN4                       10000092     task.obj
 0001:fffff092       $LN4                       10000092     concurrent_queue.obj
 0001:fffff092       $LN4                       10000092     concurrent_vector_v2.obj
 0001:fffff092       $LN4                       10000092     concurrent_vector.obj
 0001:fffff094       $LN3                       10000094     task.obj
 0001:fffff094       $LN3                       10000094     concurrent_queue.obj
 0001:fffff094       $LN3                       10000094     task.obj
 0001:fffff094       $LN3                       10000094     concurrent_vector_v2.obj
 0001:fffff094       $LN3                       10000094     concurrent_vector.obj
 0001:fffff0e0       __catch$?_Copy@?$basic_string@DU?$char_traits@D@std@@V?$allocator@D@2@@std@@QAEXII@Z$0 100000e0 f   tbb_misc.obj
 0001:fffff0e0       __catch$?_Copy@?$basic_string@DU?$char_traits@D@std@@V?$allocator@D@2@@std@@QAEXII@Z$0 100000e0 f   concurrent_hash_map.obj
 0001:fffff0e0       __catch$?_Copy@?$basic_string@DU?$char_traits@D@std@@V?$allocator@D@2@@std@@QAEXII@Z$0 100000e0 f   tbb_thread.obj
 0001:fffff0e0       __catch$?_Copy@?$basic_string@DU?$char_traits@D@std@@V?$allocator@D@2@@std@@QAEXII@Z$0 100000e0 f   concurrent_queue.obj
 0001:fffff0e0       __catch$?_Copy@?$basic_string@DU?$char_traits@D@std@@V?$allocator@D@2@@std@@QAEXII@Z$0 100000e0 f   concurrent_vector.obj
 0001:fffff116       __catch$?_Copy@?$basic_string@DU?$char_traits@D@std@@V?$allocator@D@2@@std@@QAEXII@Z$1 10000116 f   tbb_misc.obj
 0001:fffff116       __catch$?_Copy@?$basic_string@DU?$char_traits@D@std@@V?$allocator@D@2@@std@@QAEXII@Z$1 10000116 f   concurrent_vector.obj
 0001:fffff116       __catch$?_Copy@?$basic_string@DU?$char_traits@D@std@@V?$allocator@D@2@@std@@QAEXII@Z$1 10000116 f   tbb_thread.obj
 0001:fffff116       __catch$?_Copy@?$basic_string@DU?$char_traits@D@std@@V?$allocator@D@2@@std@@QAEXII@Z$1 10000116 f   concurrent_hash_map.obj
 0001:fffff116       __catch$?_Copy@?$basic_string@DU?$char_traits@D@std@@V?$allocator@D@2@@std@@QAEXII@Z$1 10000116 f   concurrent_queue.obj
 0001:fffff1e4       $LN23                      100001e4     concurrent_vector.obj
 0001:fffff1e4       $LN23                      100001e4     tbb_misc.obj
 0001:fffff1e4       $LN23                      100001e4     tbb_thread.obj
 0001:fffff1e4       $LN23                      100001e4     concurrent_hash_map.obj
 0001:fffff1e4       $LN23                      100001e4     concurrent_queue.obj
 0001:fffff1ec       $LN22                      100001ec     concurrent_vector.obj
 0001:fffff1ec       $LN22                      100001ec     concurrent_queue.obj
 0001:fffff1ec       $LN22                      100001ec     concurrent_hash_map.obj
 0001:fffff1ec       $LN22                      100001ec     tbb_thread.obj
 0001:fffff1ec       $LN22                      100001ec     tbb_misc.obj
 0001:fffff1f8       $LN20                      100001f8     concurrent_vector.obj
 0001:fffff1f8       $LN20                      100001f8     tbb_thread.obj
 0001:fffff1f8       $LN20                      100001f8     tbb_misc.obj
 0001:fffff1f8       $LN20                      100001f8     concurrent_queue.obj
 0001:fffff1f8       $LN20                      100001f8     concurrent_hash_map.obj
 0001:00000000       ??__E?_Generic_object@?$_Error_objects@H@std@@2V_Generic_error_category@2@A@@YAXXZ 10001000 f   concurrent_vector_v2.obj
 0001:00000030       ??__E?_Iostream_object@?$_Error_objects@H@std@@2V_Iostream_error_category@2@A@@YAXXZ 10001030 f   concurrent_vector_v2.obj
 0001:00000060       ??__E?_System_object@?$_Error_objects@H@std@@2V_System_error_category@2@A@@YAXXZ 10001060 f   concurrent_vector_v2.obj
 0001:00000090       ??__Eallocator_arg@std@@YAXXZ 10001090 f   concurrent_vector_v2.obj
 0001:000000b0       ??__Epiecewise_construct@std@@YAXXZ 100010b0 f   concurrent_vector_v2.obj
 0001:000000d0       ??__E?_Generic_object@?$_Error_objects@H@std@@2V_Generic_error_category@2@A@@YAXXZ 100010d0 f   concurrent_hash_map.obj
 0001:00000100       ??__E?_Iostream_object@?$_Error_objects@H@std@@2V_Iostream_error_category@2@A@@YAXXZ 10001100 f   concurrent_hash_map.obj
 0001:00000130       ??__E?_System_object@?$_Error_objects@H@std@@2V_System_error_category@2@A@@YAXXZ 10001130 f   concurrent_hash_map.obj
 0001:00000160       ??__E?id@?$num_put@DV?$back_insert_iterator@V?$basic_string@DU?$char_traits@D@std@@V?$allocator@D@2@@std@@@std@@@std@@2V0locale@2@A@@YAXXZ 10001160 f   concurrent_hash_map.obj
 0001:00000190       ??__E?id@?$num_put@_WV?$back_insert_iterator@V?$basic_string@_WU?$char_traits@_W@std@@V?$allocator@_W@2@@std@@@std@@@std@@2V0locale@2@A@@YAXXZ 10001190 f   concurrent_hash_map.obj
 0001:000001c0       ??__Eallocator_arg@std@@YAXXZ 100011c0 f   concurrent_hash_map.obj
 0001:000001e0       ??__Epiecewise_construct@std@@YAXXZ 100011e0 f   concurrent_hash_map.obj
 0001:00000200       ??__E?_Generic_object@?$_Error_objects@H@std@@2V_Generic_error_category@2@A@@YAXXZ 10001200 f   concurrent_queue.obj
 0001:00000230       ??__E?_Iostream_object@?$_Error_objects@H@std@@2V_Iostream_error_category@2@A@@YAXXZ 10001230 f   concurrent_queue.obj
 0001:00000260       ??__E?_System_object@?$_Error_objects@H@std@@2V_System_error_category@2@A@@YAXXZ 10001260 f   concurrent_queue.obj
 0001:00000290       ??__Eallocator_arg@std@@YAXXZ 10001290 f   concurrent_queue.obj
 0001:000002b0       ??__Epiecewise_construct@std@@YAXXZ 100012b0 f   concurrent_queue.obj
 0001:000002d0       ??__E?_Generic_object@?$_Error_objects@H@std@@2V_Generic_error_category@2@A@@YAXXZ 100012d0 f   concurrent_vector.obj
 0001:00000300       ??__E?_Iostream_object@?$_Error_objects@H@std@@2V_Iostream_error_category@2@A@@YAXXZ 10001300 f   concurrent_vector.obj
 0001:00000330       ??__E?_System_object@?$_Error_objects@H@std@@2V_System_error_category@2@A@@YAXXZ 10001330 f   concurrent_vector.obj
 0001:00000360       ??__Eallocator_arg@std@@YAXXZ 10001360 f   concurrent_vector.obj
 0001:00000380       ??__Epiecewise_construct@std@@YAXXZ 10001380 f   concurrent_vector.obj
 0001:000003a0       ??__E?theArenaMutex@Governor@internal@tbb@@0Vmutex@3@A@@YAXXZ 100013a0 f   task.obj
 0001:000003d0       ??__Eallocator_arg@std@@YAXXZ 100013d0 f   task.obj
 0001:000003f0       ??__Edummy_context@internal@tbb@@YAXXZ 100013f0 f   task.obj
 0001:00000420       ??__Epiecewise_construct@std@@YAXXZ 10001420 f   task.obj
 0001:00000440       ??__Ethe_check_observer_proxy_count@internal@tbb@@YAXXZ 10001440 f   task.obj
 0001:00000460       ??__Ethe_scheduler_list_mutex@internal@tbb@@YAXXZ 10001460 f   task.obj
 0001:00000490       ??__E?_Generic_object@?$_Error_objects@H@std@@2V_Generic_error_category@2@A@@YAXXZ 10001490 f   tbb_misc.obj
 0001:000004c0       ??__E?_Iostream_object@?$_Error_objects@H@std@@2V_Iostream_error_category@2@A@@YAXXZ 100014c0 f   tbb_misc.obj
 0001:000004f0       ??__E?_System_object@?$_Error_objects@H@std@@2V_System_error_category@2@A@@YAXXZ 100014f0 f   tbb_misc.obj
 0001:00000520       ??__E?id@?$num_put@DV?$back_insert_iterator@V?$basic_string@DU?$char_traits@D@std@@V?$allocator@D@2@@std@@@std@@@std@@2V0locale@2@A@@YAXXZ 10001520 f   tbb_misc.obj
 0001:00000550       ??__E?id@?$num_put@_WV?$back_insert_iterator@V?$basic_string@_WU?$char_traits@_W@std@@V?$allocator@_W@2@@std@@@std@@@std@@2V0locale@2@A@@YAXXZ 10001550 f   tbb_misc.obj
 0001:00000580       ??__Eallocator_arg@std@@YAXXZ 10001580 f   tbb_misc.obj
 0001:000005a0       ??__Epiecewise_construct@std@@YAXXZ 100015a0 f   tbb_misc.obj
 0001:000005c0       ??__E?_Generic_object@?$_Error_objects@H@std@@2V_Generic_error_category@2@A@@YAXXZ 100015c0 f   tbb_thread.obj
 0001:000005f0       ??__E?_Iostream_object@?$_Error_objects@H@std@@2V_Iostream_error_category@2@A@@YAXXZ 100015f0 f   tbb_thread.obj
 0001:00000620       ??__E?_System_object@?$_Error_objects@H@std@@2V_System_error_category@2@A@@YAXXZ 10001620 f   tbb_thread.obj
 0001:00000650       ??__E?id@?$num_put@DV?$back_insert_iterator@V?$basic_string@DU?$char_traits@D@std@@V?$allocator@D@2@@std@@@std@@@std@@2V0locale@2@A@@YAXXZ 10001650 f   tbb_thread.obj
 0001:00000680       ??__E?id@?$num_put@_WV?$back_insert_iterator@V?$basic_string@_WU?$char_traits@_W@std@@V?$allocator@_W@2@@std@@@std@@@std@@2V0locale@2@A@@YAXXZ 10001680 f   tbb_thread.obj
 0001:000006b0       ??__Eallocator_arg@std@@YAXXZ 100016b0 f   tbb_thread.obj
 0001:000006d0       ??__Epiecewise_construct@std@@YAXXZ 100016d0 f   tbb_thread.obj
 0001:00000a90       $LN9                       10001a90     concurrent_queue_v2.obj
 0001:00000a98       $LN8                       10001a98     concurrent_queue_v2.obj
 0001:00000aa4       $LN7                       10001aa4     concurrent_queue_v2.obj
 0001:00000be8       $LN9                       10001be8     concurrent_queue_v2.obj
 0001:00000bf0       $LN8                       10001bf0     concurrent_queue_v2.obj
 0001:00000bfc       $LN7                       10001bfc     concurrent_queue_v2.obj
 0001:00000cd0       $LN12                      10001cd0     concurrent_queue_v2.obj
 0001:00000cd8       $LN11                      10001cd8     concurrent_queue_v2.obj
 0001:00000ce4       $LN10                      10001ce4     concurrent_queue_v2.obj
 0001:00001070       ?__TBB_machine_cmpswp4@@YAHPCXHH@Z 10002070 f   concurrent_queue_v2.obj
 0001:000010b0       ?__TBB_machine_fetchadd4@@YAHPCXH@Z 100020b0 f   concurrent_queue_v2.obj
 0001:000010f0       ?__TBB_machine_pause@@YAXH@Z 100020f0 f   concurrent_queue_v2.obj
 0001:000012b8       $LN14                      100022b8     concurrent_queue_v2.obj
 0001:000012c0       $LN13                      100022c0     concurrent_queue_v2.obj
 0001:000012d8       $LN11                      100022d8     concurrent_queue_v2.obj
 0001:000012dd       $LN10                      100022dd     concurrent_queue_v2.obj
 0001:00001454       $LN12                      10002454     concurrent_queue_v2.obj
 0001:0000145c       $LN11                      1000245c     concurrent_queue_v2.obj
 0001:00001468       $LN9                       10002468     concurrent_queue_v2.obj
 0001:00001524       $LN7                       10002524     concurrent_queue_v2.obj
 0001:0000152c       $LN6                       1000252c     concurrent_queue_v2.obj
 0001:00001550       $LN5                       10002550     concurrent_queue_v2.obj
 0001:00001552       $LN4                       10002552     concurrent_queue_v2.obj
 0001:00001554       $LN3                       10002554     concurrent_queue_v2.obj
 0001:000015ec       $LN7                       100025ec     concurrent_queue_v2.obj
 0001:000015f4       $LN6                       100025f4     concurrent_queue_v2.obj
 0001:00001600       $LN5                       10002600     concurrent_queue_v2.obj
 0001:0000166c       $LN7                       1000266c     concurrent_queue_v2.obj
 0001:00001674       $LN6                       10002674     concurrent_queue_v2.obj
 0001:00001680       $LN5                       10002680     concurrent_queue_v2.obj
 0001:00001948       $LN10                      10002948     concurrent_queue_v2.obj
 0001:00001950       $LN9                       10002950     concurrent_queue_v2.obj
 0001:0000195c       $LN7                       1000295c     concurrent_queue_v2.obj
 0001:00001a7c       $LN5                       10002a7c     concurrent_queue_v2.obj
 0001:00001a84       $LN4                       10002a84     concurrent_queue_v2.obj
 0001:00001a90       $LN3                       10002a90     concurrent_queue_v2.obj
 0001:00001aec       $LN5                       10002aec     concurrent_queue_v2.obj
 0001:00001af4       $LN4                       10002af4     concurrent_queue_v2.obj
 0001:00001b00       $LN3                       10002b00     concurrent_queue_v2.obj
 0001:00001e84       $LN5                       10002e84     concurrent_queue_v2.obj
 0001:00001e8c       $LN4                       10002e8c     concurrent_queue_v2.obj
 0001:00001e98       $LN3                       10002e98     concurrent_queue_v2.obj
 0001:00001ef4       $LN5                       10002ef4     concurrent_queue_v2.obj
 0001:00001efc       $LN4                       10002efc     concurrent_queue_v2.obj
 0001:00001f08       $LN3                       10002f08     concurrent_queue_v2.obj
 0001:00001f10       ?__TBB_machine_cmpswp4@@YAHPCXHH@Z 10002f10 f   concurrent_vector_v2.obj
 0001:00001f50       ?__TBB_machine_fetchadd4@@YAHPCXH@Z 10002f50 f   concurrent_vector_v2.obj
 0001:00001f90       ?__TBB_machine_lg@@YAH_K@Z 10002f90 f   concurrent_vector_v2.obj
 0001:00001fc0       ?__TBB_machine_pause@@YAXH@Z 10002fc0 f   concurrent_vector_v2.obj
 0001:00002c80       $LN9                       10003c80     concurrent_vector_v2.obj
 0001:00002c88       $LN8                       10003c88     concurrent_vector_v2.obj
 0001:00002c94       $LN7                       10003c94     concurrent_vector_v2.obj
 0001:00002e14       $LN7                       10003e14     concurrent_vector_v2.obj
 0001:00002e1c       $LN6                       10003e1c     concurrent_vector_v2.obj
 0001:00002e40       $LN5                       10003e40     concurrent_vector_v2.obj
 0001:00002e42       $LN4                       10003e42     concurrent_vector_v2.obj
 0001:00002e44       $LN3                       10003e44     concurrent_vector_v2.obj
 0001:00003128       $LN7                       10004128     concurrent_vector_v2.obj
 0001:00003130       $LN6                       10004130     concurrent_vector_v2.obj
 0001:0000313c       $LN5                       1000413c     concurrent_vector_v2.obj
 0001:0000380c       $LN5                       1000480c     concurrent_vector_v2.obj
 0001:00003814       $LN4                       10004814     concurrent_vector_v2.obj
 0001:00003820       $LN3                       10004820     concurrent_vector_v2.obj
 0001:00003a28       $LN5                       10004a28     concurrent_vector_v2.obj
 0001:00003a30       $LN4                       10004a30     concurrent_vector_v2.obj
 0001:00003a3c       $LN3                       10004a3c     concurrent_vector_v2.obj
 0001:00003b30       __catch$?_Copy@?$basic_string@DU?$char_traits@D@std@@V?$allocator@D@2@@std@@QAEXII@Z$0 10004b30 f i concurrent_vector_v2.obj
 0001:00003b66       __catch$?_Copy@?$basic_string@DU?$char_traits@D@std@@V?$allocator@D@2@@std@@QAEXII@Z$1 10004b66 f i concurrent_vector_v2.obj
 0001:00003c34       $LN23                      10004c34     concurrent_vector_v2.obj
 0001:00003c3c       $LN22                      10004c3c     concurrent_vector_v2.obj
 0001:00003c48       $LN20                      10004c48     concurrent_vector_v2.obj
 0001:00003d1c       $LN5                       10004d1c     concurrent_vector_v2.obj
 0001:00003d24       $LN4                       10004d24     concurrent_vector_v2.obj
 0001:00003d30       $LN3                       10004d30     concurrent_vector_v2.obj
 0001:00004c44       $LN5                       10005c44     concurrent_vector_v2.obj
 0001:00004c4c       $LN4                       10005c4c     concurrent_vector_v2.obj
 0001:00004c58       $LN3                       10005c58     concurrent_vector_v2.obj
 0001:00004e24       $LN17                      10005e24     spin_rw_mutex_v2.obj
 0001:00004e2c       $LN16                      10005e2c     spin_rw_mutex_v2.obj
 0001:00004e38       $LN15                      10005e38     spin_rw_mutex_v2.obj
 0001:00004fb0       $LN17                      10005fb0     spin_rw_mutex_v2.obj
 0001:00004fb8       $LN16                      10005fb8     spin_rw_mutex_v2.obj
 0001:00004fc4       $LN15                      10005fc4     spin_rw_mutex_v2.obj
 0001:00005170       $LN24                      10006170     spin_rw_mutex_v2.obj
 0001:00005178       $LN23                      10006178     spin_rw_mutex_v2.obj
 0001:00005184       $LN22                      10006184     spin_rw_mutex_v2.obj
 0001:000053c0       ?__TBB_machine_cmpswp4@@YAHPCXHH@Z 100063c0 f   spin_rw_mutex_v2.obj
 0001:00005400       ?__TBB_machine_fetchadd4@@YAHPCXH@Z 10006400 f   spin_rw_mutex_v2.obj
 0001:00005440       ?__TBB_machine_OR@@YAXPCXH@Z 10006440 f   spin_rw_mutex_v2.obj
 0001:00005460       ?__TBB_machine_pause@@YAXH@Z 10006460 f   spin_rw_mutex_v2.obj
 0001:00005480       ?CAS@tbb@@YA_NACIII@Z      10006480 f   spin_rw_mutex_v2.obj
 0001:00005608       $LN11                      10006608     rml_tbb.obj
 0001:00005610       $LN10                      10006610     rml_tbb.obj
 0001:00005640       $LN9                       10006640     rml_tbb.obj
 0001:0000564f       $LN8                       1000664f     rml_tbb.obj
 0001:00005651       $LN7                       10006651     rml_tbb.obj
 0001:00005663       $LN6                       10006663     rml_tbb.obj
 0001:00005bd0       ?DummyMalloc@internal@tbb@@YAPAXI@Z 10006bd0 f   cache_aligned_allocator.obj
 0001:00005c20       ?DummyFree@internal@tbb@@YAXPAX@Z 10006c20 f   cache_aligned_allocator.obj
 0001:00005eb0       ?__TBB_machine_cmpswp4@@YAHPCXHH@Z 10006eb0 f   concurrent_queue.obj
 0001:00005ef0       ?__TBB_machine_fetchadd4@@YAHPCXH@Z 10006ef0 f   concurrent_queue.obj
 0001:00005f30       ?__TBB_machine_pause@@YAXH@Z 10006f30 f   concurrent_queue.obj
 0001:0000659c       $LN23                      1000759c     concurrent_queue.obj
 0001:000065a4       $LN22                      100075a4     concurrent_queue.obj
 0001:000065bc       $LN21                      100075bc     concurrent_queue.obj
 0001:000065ce       $LN20                      100075ce     concurrent_queue.obj
 0001:0000687c       $LN22                      1000787c     concurrent_queue.obj
 0001:00006884       $LN21                      10007884     concurrent_queue.obj
 0001:00006890       $LN20                      10007890     concurrent_queue.obj
 0001:000071e8       $LN11                      100081e8     concurrent_queue.obj
 0001:000071f0       $LN10                      100081f0     concurrent_queue.obj
 0001:000071fc       $LN9                       100081fc     concurrent_queue.obj
 0001:000072de       __catch$?push@micro_queue@internal@tbb@@QAEXPBXIAAVconcurrent_queue_base_v3@23@@Z$0 100082de f   concurrent_queue.obj
 0001:00007488       __catch$?push@micro_queue@internal@tbb@@QAEXPBXIAAVconcurrent_queue_base_v3@23@@Z$2 10008488 f   concurrent_queue.obj
 0001:000074f4       $LN32                      100084f4     concurrent_queue.obj
 0001:000074fc       $LN31                      100084fc     concurrent_queue.obj
 0001:00007514       $LN29                      10008514     concurrent_queue.obj
 0001:00007519       $LN28                      10008519     concurrent_queue.obj
 0001:00007728       $LN20                      10008728     concurrent_queue.obj
 0001:00007730       $LN19                      10008730     concurrent_queue.obj
 0001:0000773c       $LN17                      1000873c     concurrent_queue.obj
 0001:000079a8       __catch$?assign@micro_queue@internal@tbb@@QAEAAU123@ABU123@AAVconcurrent_queue_base_v3@23@@Z$0 100089a8 f   concurrent_queue.obj
 0001:00007a14       $LN22                      10008a14     concurrent_queue.obj
 0001:00007a1c       $LN21                      10008a1c     concurrent_queue.obj
 0001:00007a28       $LN19                      10008a28     concurrent_queue.obj
 0001:00007be8       $LN9                       10008be8     concurrent_queue.obj
 0001:00007bf0       $LN8                       10008bf0     concurrent_queue.obj
 0001:00007bfc       $LN6                       10008bfc     concurrent_queue.obj
 0001:00007ebc       $LN10                      10008ebc     concurrent_queue.obj
 0001:00007ec4       $LN9                       10008ec4     concurrent_queue.obj
 0001:00007ed0       $LN7                       10008ed0     concurrent_queue.obj
 0001:00007f9c       $LN5                       10008f9c     concurrent_queue.obj
 0001:00007fa4       $LN4                       10008fa4     concurrent_queue.obj
 0001:00007fb0       $LN3                       10008fb0     concurrent_queue.obj
 0001:000082c4       $LN5                       100092c4     concurrent_queue.obj
 0001:000082cc       $LN4                       100092cc     concurrent_queue.obj
 0001:000082d8       $LN3                       100092d8     concurrent_queue.obj
 0001:00008300       ?__TBB_machine_cmpswp4@@YAHPCXHH@Z 10009300 f   concurrent_vector.obj
 0001:00008340       ?__TBB_machine_fetchadd4@@YAHPCXH@Z 10009340 f   concurrent_vector.obj
 0001:00008380       ?__TBB_machine_lg@@YAH_K@Z 10009380 f   concurrent_vector.obj
 0001:000083b0       ?__TBB_machine_pause@@YAXH@Z 100093b0 f   concurrent_vector.obj
 0001:00008625       __catch$?internal_reserve@concurrent_vector_base_v3@internal@tbb@@IAEXIII@Z$0 10009625 f   concurrent_vector.obj
 0001:00008870       $LN17                      10009870     concurrent_vector.obj
 0001:00008878       $LN16                      10009878     concurrent_vector.obj
 0001:00008884       $LN14                      10009884     concurrent_vector.obj
 0001:00008b18       $LN11                      10009b18     concurrent_vector.obj
 0001:00008b20       $LN10                      10009b20     concurrent_vector.obj
 0001:00008b2c       $LN8                       10009b2c     concurrent_vector.obj
 0001:00008d69       __catch$?internal_compact@concurrent_vector_base_v3@internal@tbb@@IAEPAXIPAXP6AX0I@ZP6AX0PBXI@Z@Z$0 10009d69 f   concurrent_vector.obj
 0001:00008fe8       $LN39                      10009fe8     concurrent_vector.obj
 0001:00008ff0       $LN38                      10009ff0     concurrent_vector.obj
 0001:00008ffc       $LN36                      10009ffc     concurrent_vector.obj
 0001:000097e4       $LN16                      1000a7e4     concurrent_vector.obj
 0001:000097ec       $LN15                      1000a7ec     concurrent_vector.obj
 0001:000097f8       $LN14                      1000a7f8     concurrent_vector.obj
 0001:00009984       $LN11                      1000a984     concurrent_vector.obj
 0001:0000998c       $LN10                      1000a98c     concurrent_vector.obj
 0001:000099a4       $LN8                       1000a9a4     concurrent_vector.obj
 0001:000099ad       $LN7                       1000a9ad     concurrent_vector.obj
 0001:00009ba8       $LN23                      1000aba8     concurrent_vector.obj
 0001:00009bb0       $LN22                      1000abb0     concurrent_vector.obj
 0001:00009bbc       $LN21                      1000abbc     concurrent_vector.obj
 0001:00009f24       $LN7                       1000af24     concurrent_vector.obj
 0001:00009f2c       $LN6                       1000af2c     concurrent_vector.obj
 0001:00009f50       $LN5                       1000af50     concurrent_vector.obj
 0001:00009f52       $LN4                       1000af52     concurrent_vector.obj
 0001:00009f54       $LN3                       1000af54     concurrent_vector.obj
 0001:00009fbc       $LN7                       1000afbc     concurrent_vector.obj
 0001:00009fc4       $LN6                       1000afc4     concurrent_vector.obj
 0001:00009fd0       $LN5                       1000afd0     concurrent_vector.obj
 0001:0000a65c       $LN5                       1000b65c     concurrent_vector.obj
 0001:0000a664       $LN4                       1000b664     concurrent_vector.obj
 0001:0000a670       $LN3                       1000b670     concurrent_vector.obj
 0001:0000aaf9       __catch$?enable_segment@helper@concurrent_vector_base_v3@internal@tbb@@SAIAAV234@II@Z$0 1000baf9 f i concurrent_vector.obj
 0001:0000aca1       __catch$?enable_segment@helper@concurrent_vector_base_v3@internal@tbb@@SAIAAV234@II@Z$2 1000bca1 f i concurrent_vector.obj
 0001:0000aec8       $LN23                      1000bec8     concurrent_vector.obj
 0001:0000aed0       $LN22                      1000bed0     concurrent_vector.obj
 0001:0000aedc       $LN21                      1000bedc     concurrent_vector.obj
 0001:0000b354       $LN5                       1000c354     concurrent_vector.obj
 0001:0000b35c       $LN4                       1000c35c     concurrent_vector.obj
 0001:0000b368       $LN3                       1000c368     concurrent_vector.obj
 0001:0000b61c       $LN17                      1000c61c     dynamic_link.obj
 0001:0000b624       $LN16                      1000c624     dynamic_link.obj
 0001:0000b630       $LN15                      1000c630     dynamic_link.obj
 0001:0000b7c0       ___itt_init_lib            1000c7c0 f   itt_notify_proxy.obj
 0001:0000b940       ___itt_pause_init          1000c940 f   itt_notify_proxy.obj
 0001:0000b970       ___itt_resume_init         1000c970 f   itt_notify_proxy.obj
 0001:0000b9a0       ___itt_markA_init          1000c9a0 f   itt_notify_proxy.obj
 0001:0000b9e0       ___itt_markW_init          1000c9e0 f   itt_notify_proxy.obj
 0001:0000ba20       ___itt_mark_globalA_init   1000ca20 f   itt_notify_proxy.obj
 0001:0000ba60       ___itt_mark_globalW_init   1000ca60 f   itt_notify_proxy.obj
 0001:0000baa0       ___itt_thread_set_nameA_init 1000caa0 f   itt_notify_proxy.obj
 0001:0000bae0       ___itt_thread_set_nameW_init 1000cae0 f   itt_notify_proxy.obj
 0001:0000bb20       ___itt_sync_createA_init   1000cb20 f   itt_notify_proxy.obj
 0001:0000bb60       ___itt_sync_createW_init   1000cb60 f   itt_notify_proxy.obj
 0001:0000bba0       ___itt_sync_renameA_init   1000cba0 f   itt_notify_proxy.obj
 0001:0000bbe0       ___itt_sync_renameW_init   1000cbe0 f   itt_notify_proxy.obj
 0001:0000bc20       ___itt_sync_destroy_init   1000cc20 f   itt_notify_proxy.obj
 0001:0000bc60       ___itt_mark_off_init       1000cc60 f   itt_notify_proxy.obj
 0001:0000bca0       ___itt_mark_global_off_init 1000cca0 f   itt_notify_proxy.obj
 0001:0000bce0       ___itt_thread_ignore_init  1000cce0 f   itt_notify_proxy.obj
 0001:0000bd10       ___itt_sync_prepare_init   1000cd10 f   itt_notify_proxy.obj
 0001:0000bd50       ___itt_sync_cancel_init    1000cd50 f   itt_notify_proxy.obj
 0001:0000bd90       ___itt_sync_acquired_init  1000cd90 f   itt_notify_proxy.obj
 0001:0000bdd0       ___itt_sync_releasing_init 1000cdd0 f   itt_notify_proxy.obj
 0001:0000be10       ___itt_sync_released_init  1000ce10 f   itt_notify_proxy.obj
 0001:0000be50       ___itt_memory_read_init    1000ce50 f   itt_notify_proxy.obj
 0001:0000be90       ___itt_memory_write_init   1000ce90 f   itt_notify_proxy.obj
 0001:0000bed0       ___itt_memory_update_init  1000ced0 f   itt_notify_proxy.obj
 0001:0000bf10       ___itt_jit_notify_event_init 1000cf10 f   itt_notify_proxy.obj
 0001:0000bf50       ___itt_mark_createA_init   1000cf50 f   itt_notify_proxy.obj
 0001:0000bf90       ___itt_mark_createW_init   1000cf90 f   itt_notify_proxy.obj
 0001:0000bfd0       ___itt_fsync_prepare_init  1000cfd0 f   itt_notify_proxy.obj
 0001:0000c010       ___itt_fsync_cancel_init   1000d010 f   itt_notify_proxy.obj
 0001:0000c050       ___itt_fsync_acquired_init 1000d050 f   itt_notify_proxy.obj
 0001:0000c090       ___itt_fsync_releasing_init 1000d090 f   itt_notify_proxy.obj
 0001:0000c0d0       ___itt_fsync_released_init 1000d0d0 f   itt_notify_proxy.obj
 0001:0000c110       ___itt_notify_sync_prepare_init 1000d110 f   itt_notify_proxy.obj
 0001:0000c150       ___itt_notify_sync_cancel_init 1000d150 f   itt_notify_proxy.obj
 0001:0000c190       ___itt_notify_sync_acquired_init 1000d190 f   itt_notify_proxy.obj
 0001:0000c1d0       ___itt_notify_sync_releasing_init 1000d1d0 f   itt_notify_proxy.obj
 0001:0000c210       ___itt_notify_cpath_target_init 1000d210 f   itt_notify_proxy.obj
 0001:0000c240       ___itt_sync_set_nameA_init 1000d240 f   itt_notify_proxy.obj
 0001:0000c280       ___itt_sync_set_nameW_init 1000d280 f   itt_notify_proxy.obj
 0001:0000c2c0       ___itt_thr_name_setA_init  1000d2c0 f   itt_notify_proxy.obj
 0001:0000c300       ___itt_thr_name_setW_init  1000d300 f   itt_notify_proxy.obj
 0001:0000c340       ___itt_event_createA_init  1000d340 f   itt_notify_proxy.obj
 0001:0000c380       ___itt_event_createW_init  1000d380 f   itt_notify_proxy.obj
 0001:0000c3c0       ___itt_thr_ignore_init     1000d3c0 f   itt_notify_proxy.obj
 0001:0000c3f0       ___itt_event_start_init    1000d3f0 f   itt_notify_proxy.obj
 0001:0000c430       ___itt_event_end_init      1000d430 f   itt_notify_proxy.obj
 0001:0000c470       ___itt_state_get_init      1000d470 f   itt_notify_proxy.obj
 0001:0000c4b0       ___itt_state_set_init      1000d4b0 f   itt_notify_proxy.obj
 0001:0000c4f0       ___itt_obj_mode_set_init   1000d4f0 f   itt_notify_proxy.obj
 0001:0000c530       ___itt_thr_mode_set_init   1000d530 f   itt_notify_proxy.obj
 0001:0000c570       ___itt_api_version_init    1000d570 f   itt_notify_proxy.obj
 0001:0000c5b0       ___itt_jit_get_new_method_id_init 1000d5b0 f   itt_notify_proxy.obj
 0001:0000c5f0       ___itt_fstrcmp             1000d5f0 f   itt_notify_proxy.obj
 0001:0000c6b0       ___itt_fsplit              1000d6b0 f   itt_notify_proxy.obj
 0001:0000c870       ___itt_fstrcpyn            1000d870 f   itt_notify_proxy.obj
 0001:0000c8d0       ___itt_report_error        1000d8d0 f   itt_notify_proxy.obj
 0001:0000c910       ___itt_get_env_var         1000d910 f   itt_notify_proxy.obj
 0001:0000c9d0       ___itt_get_lib_name        1000d9d0 f   itt_notify_proxy.obj
 0001:0000ca10       ___itt_get_groups          1000da10 f   itt_notify_proxy.obj
 0001:0000cbc4       $LN20                      1000dbc4     itt_notify_proxy.obj
 0001:0000cbcc       $LN19                      1000dbcc     itt_notify_proxy.obj
 0001:0000cbf0       $LN18                      1000dbf0     itt_notify_proxy.obj
 0001:0000cbf4       $LN17                      1000dbf4     itt_notify_proxy.obj
 0001:0000cbfa       $LN16                      1000dbfa     itt_notify_proxy.obj
 0001:0000d010       ?__TBB_machine_fetchadd4@@YAHPCXH@Z 1000e010 f   pipeline.obj
 0001:0000d36c       $LN22                      1000e36c     pipeline.obj
 0001:0000d374       $LN21                      1000e374     pipeline.obj
 0001:0000d380       $LN20                      1000e380     pipeline.obj
 0001:0000d7bc       $LN7                       1000e7bc     pipeline.obj
 0001:0000d7c4       $LN6                       1000e7c4     pipeline.obj
 0001:0000d7d0       $LN4                       1000e7d0     pipeline.obj
 0001:0000d94c       $LN15                      1000e94c     pipeline.obj
 0001:0000d954       $LN14                      1000e954     pipeline.obj
 0001:0000d960       $LN12                      1000e960     pipeline.obj
 0001:0000e4a8       $LN13                      1000f4a8     pipeline.obj
 0001:0000e4b0       $LN12                      1000f4b0     pipeline.obj
 0001:0000e4c8       $LN10                      1000f4c8     pipeline.obj
 0001:0000e4cd       $LN9                       1000f4cd     pipeline.obj
 0001:0000e69c       $LN17                      1000f69c     pipeline.obj
 0001:0000e6a4       $LN16                      1000f6a4     pipeline.obj
 0001:0000e6b0       $LN14                      1000f6b0     pipeline.obj
 0001:0000ee4c       $LN5                       1000fe4c     pipeline.obj
 0001:0000ee54       $LN4                       1000fe54     pipeline.obj
 0001:0000ee60       $LN3                       1000fe60     pipeline.obj
 0001:0000f548       $LN32                      10010548     pipeline.obj
 0001:0000f550       $LN31                      10010550     pipeline.obj
 0001:0000f55c       $LN29                      1001055c     pipeline.obj
 0001:0000f87c       $LN15                      1001087c     pipeline.obj
 0001:0000f884       $LN14                      10010884     pipeline.obj
 0001:0000f890       $LN12                      10010890     pipeline.obj
 0001:0000faf0       $LN11                      10010af0     pipeline.obj
 0001:0000faf8       $LN10                      10010af8     pipeline.obj
 0001:0000fb04       $LN8                       10010b04     pipeline.obj
 0001:0000fd34       $LN5                       10010d34     pipeline.obj
 0001:0000fd3c       $LN4                       10010d3c     pipeline.obj
 0001:0000fd48       $LN3                       10010d48     pipeline.obj
 0001:0000fd50       ?__TBB_machine_cmpswp4@@YAHPCXHH@Z 10010d50 f   private_server.obj
 0001:0000fd90       ?__TBB_machine_fetchadd4@@YAHPCXH@Z 10010d90 f   private_server.obj
 0001:0000ff44       $LN13                      10010f44     private_server.obj
 0001:0000ff4c       $LN12                      10010f4c     private_server.obj
 0001:0000ff58       $LN11                      10010f58     private_server.obj
 0001:000100dc       $LN7                       100110dc     private_server.obj
 0001:000100e4       $LN6                       100110e4     private_server.obj
 0001:000100f0       $LN5                       100110f0     private_server.obj
 0001:00010290       $LN22                      10011290     private_server.obj
 0001:00010298       $LN21                      10011298     private_server.obj
 0001:000102b0       $LN19                      100112b0     private_server.obj
 0001:000102b5       $LN18                      100112b5     private_server.obj
 0001:000106d4       $LN7                       100116d4     private_server.obj
 0001:000106dc       $LN6                       100116dc     private_server.obj
 0001:00010700       $LN5                       10011700     private_server.obj
 0001:00010702       $LN4                       10011702     private_server.obj
 0001:00010704       $LN3                       10011704     private_server.obj
 0001:00010774       $LN7                       10011774     private_server.obj
 0001:0001077c       $LN6                       1001177c     private_server.obj
 0001:000107a0       $LN5                       100117a0     private_server.obj
 0001:000107a2       $LN4                       100117a2     private_server.obj
 0001:000107a4       $LN3                       100117a4     private_server.obj
 0001:00010b8c       $LN5                       10011b8c     private_server.obj
 0001:00010b94       $LN4                       10011b94     private_server.obj
 0001:00010ba0       $LN3                       10011ba0     private_server.obj
 0001:00010bfc       $LN5                       10011bfc     private_server.obj
 0001:00010c04       $LN4                       10011c04     private_server.obj
 0001:00010c10       $LN3                       10011c10     private_server.obj
 0001:00010c6c       $LN5                       10011c6c     private_server.obj
 0001:00010c74       $LN4                       10011c74     private_server.obj
 0001:00010c80       $LN3                       10011c80     private_server.obj
 0001:00011184       $LN7                       10012184     private_server.obj
 0001:0001118c       $LN6                       1001218c     private_server.obj
 0001:00011198       $LN5                       10012198     private_server.obj
 0001:000113b4       $LN5                       100123b4     private_server.obj
 0001:000113bc       $LN4                       100123bc     private_server.obj
 0001:000113c8       $LN3                       100123c8     private_server.obj
 0001:00011424       $LN5                       10012424     private_server.obj
 0001:0001142c       $LN4                       1001242c     private_server.obj
 0001:00011438       $LN3                       10012438     private_server.obj
 0001:00011494       $LN5                       10012494     private_server.obj
 0001:0001149c       $LN4                       1001249c     private_server.obj
 0001:000114a8       $LN3                       100124a8     private_server.obj
 0001:000115b4       $LN9                       100125b4     private_server.obj
 0001:000115bc       $LN8                       100125bc     private_server.obj
 0001:000115c8       $LN6                       100125c8     private_server.obj
 0001:00011620       ?__TBB_machine_cmpswp4@@YAHPCXHH@Z 10012620 f   queuing_mutex.obj
 0001:00011660       ?__TBB_machine_fetchstore4@@YAHPCXH@Z 10012660 f   queuing_mutex.obj
 0001:000116a0       ?__TBB_machine_pause@@YAXH@Z 100126a0 f   queuing_mutex.obj
 0001:00011a74       $LN7                       10012a74     queuing_mutex.obj
 0001:00011a7c       $LN6                       10012a7c     queuing_mutex.obj
 0001:00011aa0       $LN5                       10012aa0     queuing_mutex.obj
 0001:00011aa2       $LN4                       10012aa2     queuing_mutex.obj
 0001:00011aa4       $LN3                       10012aa4     queuing_mutex.obj
 0001:00011b10       $LN6                       10012b10     queuing_mutex.obj
 0001:00011b18       $LN5                       10012b18     queuing_mutex.obj
 0001:00011b30       $LN4                       10012b30     queuing_mutex.obj
 0001:00011b32       $LN3                       10012b32     queuing_mutex.obj
 0001:00011ba8       $LN7                       10012ba8     queuing_mutex.obj
 0001:00011bb0       $LN6                       10012bb0     queuing_mutex.obj
 0001:00011bbc       $LN5                       10012bbc     queuing_mutex.obj
 0001:00011c28       $LN7                       10012c28     queuing_mutex.obj
 0001:00011c30       $LN6                       10012c30     queuing_mutex.obj
 0001:00011c3c       $LN5                       10012c3c     queuing_mutex.obj
 0001:00011c9c       $LN5                       10012c9c     queuing_mutex.obj
 0001:00011ca4       $LN4                       10012ca4     queuing_mutex.obj
 0001:00011cb0       $LN3                       10012cb0     queuing_mutex.obj
 0001:00011d70       ?__TBB_machine_cmpswp1@@YADPCXDD@Z 10012d70 f   queuing_rw_mutex.obj
 0001:00011db0       ?__TBB_machine_cmpswp4@@YAHPCXHH@Z 10012db0 f   queuing_rw_mutex.obj
 0001:00011df0       ?__TBB_machine_fetchadd4@@YAHPCXH@Z 10012df0 f   queuing_rw_mutex.obj
 0001:00011e30       ?__TBB_machine_fetchstore4@@YAHPCXH@Z 10012e30 f   queuing_rw_mutex.obj
 0001:00011e70       ?__TBB_machine_pause@@YAXH@Z 10012e70 f   queuing_rw_mutex.obj
 0001:00012258       $LN38                      10013258     queuing_rw_mutex.obj
 0001:00012260       $LN37                      10013260     queuing_rw_mutex.obj
 0001:0001226c       $LN36                      1001326c     queuing_rw_mutex.obj
 0001:00012804       $LN38                      10013804     queuing_rw_mutex.obj
 0001:0001280c       $LN37                      1001380c     queuing_rw_mutex.obj
 0001:00012824       $LN36                      10013824     queuing_rw_mutex.obj
 0001:00012829       $LN35                      10013829     queuing_rw_mutex.obj
 0001:00012d90       $LN52                      10013d90     queuing_rw_mutex.obj
 0001:00012d98       $LN51                      10013d98     queuing_rw_mutex.obj
 0001:00012dd4       $LN50                      10013dd4     queuing_rw_mutex.obj
 0001:00012dd9       $LN49                      10013dd9     queuing_rw_mutex.obj
 0001:00012de1       $LN48                      10013de1     queuing_rw_mutex.obj
 0001:00012de3       $LN47                      10013de3     queuing_rw_mutex.obj
 0001:00012de6       $LN46                      10013de6     queuing_rw_mutex.obj
 0001:00013108       $LN7                       10014108     queuing_rw_mutex.obj
 0001:00013110       $LN6                       10014110     queuing_rw_mutex.obj
 0001:00013134       $LN5                       10014134     queuing_rw_mutex.obj
 0001:00013136       $LN4                       10014136     queuing_rw_mutex.obj
 0001:00013138       $LN3                       10014138     queuing_rw_mutex.obj
 0001:000131a8       $LN7                       100141a8     queuing_rw_mutex.obj
 0001:000131b0       $LN6                       100141b0     queuing_rw_mutex.obj
 0001:000131d4       $LN5                       100141d4     queuing_rw_mutex.obj
 0001:000131d6       $LN4                       100141d6     queuing_rw_mutex.obj
 0001:000131d8       $LN3                       100141d8     queuing_rw_mutex.obj
 0001:00013244       $LN7                       10014244     queuing_rw_mutex.obj
 0001:0001324c       $LN6                       1001424c     queuing_rw_mutex.obj
 0001:00013270       $LN5                       10014270     queuing_rw_mutex.obj
 0001:00013272       $LN4                       10014272     queuing_rw_mutex.obj
 0001:00013274       $LN3                       10014274     queuing_rw_mutex.obj
 0001:00013320       $LN6                       10014320     queuing_rw_mutex.obj
 0001:00013328       $LN5                       10014328     queuing_rw_mutex.obj
 0001:00013340       $LN4                       10014340     queuing_rw_mutex.obj
 0001:00013342       $LN3                       10014342     queuing_rw_mutex.obj
 0001:000133dc       $LN7                       100143dc     queuing_rw_mutex.obj
 0001:000133e4       $LN6                       100143e4     queuing_rw_mutex.obj
 0001:000133f0       $LN5                       100143f0     queuing_rw_mutex.obj
 0001:00013458       $LN7                       10014458     queuing_rw_mutex.obj
 0001:00013460       $LN6                       10014460     queuing_rw_mutex.obj
 0001:0001346c       $LN5                       1001446c     queuing_rw_mutex.obj
 0001:000134d8       $LN7                       100144d8     queuing_rw_mutex.obj
 0001:000134e0       $LN6                       100144e0     queuing_rw_mutex.obj
 0001:000134ec       $LN5                       100144ec     queuing_rw_mutex.obj
 0001:00013558       $LN7                       10014558     queuing_rw_mutex.obj
 0001:00013560       $LN6                       10014560     queuing_rw_mutex.obj
 0001:0001356c       $LN5                       1001456c     queuing_rw_mutex.obj
 0001:000135d8       $LN7                       100145d8     queuing_rw_mutex.obj
 0001:000135e0       $LN6                       100145e0     queuing_rw_mutex.obj
 0001:000135ec       $LN5                       100145ec     queuing_rw_mutex.obj
 0001:000136bc       $LN5                       100146bc     queuing_rw_mutex.obj
 0001:000136c4       $LN4                       100146c4     queuing_rw_mutex.obj
 0001:000136d0       $LN3                       100146d0     queuing_rw_mutex.obj
 0001:0001372c       $LN5                       1001472c     queuing_rw_mutex.obj
 0001:00013734       $LN4                       10014734     queuing_rw_mutex.obj
 0001:00013740       $LN3                       10014740     queuing_rw_mutex.obj
 0001:000139f8       $LN5                       100149f8     queuing_rw_mutex.obj
 0001:00013a00       $LN4                       10014a00     queuing_rw_mutex.obj
 0001:00013a0c       $LN3                       10014a0c     queuing_rw_mutex.obj
 0001:00013e50       ?__TBB_machine_cmpswp1@@YADPCXDD@Z 10014e50 f   spin_mutex.obj
 0001:00013e90       ?__TBB_machine_pause@@YAXH@Z 10014e90 f   spin_mutex.obj
 0001:00014164       $LN9                       10015164     spin_mutex.obj
 0001:0001416c       $LN8                       1001516c     spin_mutex.obj
 0001:00014178       $LN7                       10015178     spin_mutex.obj
 0001:000141d0       ?__TBB_machine_cmpswp4@@YAHPCXHH@Z 100151d0 f   spin_rw_mutex.obj
 0001:00014210       ?__TBB_machine_fetchadd4@@YAHPCXH@Z 10015210 f   spin_rw_mutex.obj
 0001:00014250       ?__TBB_machine_OR@@YAXPCXH@Z 10015250 f   spin_rw_mutex.obj
 0001:00014270       ?__TBB_machine_AND@@YAXPCXH@Z 10015270 f   spin_rw_mutex.obj
 0001:00014290       ?__TBB_machine_pause@@YAXH@Z 10015290 f   spin_rw_mutex.obj
 0001:00014390       $LN15                      10015390     spin_rw_mutex.obj
 0001:00014398       $LN14                      10015398     spin_rw_mutex.obj
 0001:000143a4       $LN13                      100153a4     spin_rw_mutex.obj
 0001:000144f4       $LN15                      100154f4     spin_rw_mutex.obj
 0001:000144fc       $LN14                      100154fc     spin_rw_mutex.obj
 0001:00014508       $LN13                      10015508     spin_rw_mutex.obj
 0001:00014674       $LN19                      10015674     spin_rw_mutex.obj
 0001:0001467c       $LN18                      1001567c     spin_rw_mutex.obj
 0001:00014688       $LN17                      10015688     spin_rw_mutex.obj
 0001:000148f0       ??$CAS@H@tbb@@YAHACHHH@Z   100158f0 f   spin_rw_mutex.obj
 0001:00014910       ?__TBB_machine_cmpswp1@@YADPCXDD@Z 10015910 f   task.obj
 0001:00014950       ?__TBB_machine_cmpswp4@@YAHPCXHH@Z 10015950 f   task.obj
 0001:00014990       ?__TBB_machine_fetchadd4@@YAHPCXH@Z 10015990 f   task.obj
 0001:000149d0       ?__TBB_machine_fetchstore4@@YAHPCXH@Z 100159d0 f   task.obj
 0001:00014a10       ?__TBB_machine_pause@@YAXH@Z 10015a10 f   task.obj
 0001:00015098       $LN11                      10016098     task.obj
 0001:000150a0       $LN10                      100160a0     task.obj
 0001:000150ac       $LN9                       100160ac     task.obj
 0001:0001522e       __catch$?register_pending_exception@task_group_context@tbb@@QAEXXZ$0 1001622e f   task.obj
 0001:00015278       __catch$?register_pending_exception@task_group_context@tbb@@QAEXXZ$1 10016278 f   task.obj
 0001:00015301       __catch$?register_pending_exception@task_group_context@tbb@@QAEXXZ$2 10016301 f   task.obj
 0001:000153b0       $LN28                      100163b0     task.obj
 0001:000153b8       $LN27                      100163b8     task.obj
 0001:000153d0       $LN25                      100163d0     task.obj
 0001:000153d4       $LN24                      100163d4     task.obj
 0001:00016170       $LN20                      10017170     task.obj
 0001:00016178       $LN19                      10017178     task.obj
 0001:00016184       $LN17                      10017184     task.obj
 0001:00016280       ?DetectNumberOfWorkers@internal@tbb@@YAHXZ 10017280 f   task.obj
 0001:000162d0       $LN5                       100172d0     task.obj
 0001:000162d8       $LN4                       100172d8     task.obj
 0001:000162e4       $LN3                       100172e4     task.obj
 0001:00016478       $LN18                      10017478     task.obj
 0001:00016480       $LN17                      10017480     task.obj
 0001:0001648c       $LN15                      1001748c     task.obj
 0001:00016608       $LN8                       10017608     task.obj
 0001:00016610       $LN7                       10017610     task.obj
 0001:0001661c       $LN6                       1001761c     task.obj
 0001:0001681b       __catch$?process_list@observer_proxy@internal@tbb@@SAPAV123@PAV123@_N1@Z$2 1001781b f   task.obj
 0001:00016920       $LN44                      10017920     task.obj
 0001:00016928       $LN43                      10017928     task.obj
 0001:00016934       $LN41                      10017934     task.obj
 0001:000182c8       $LN14                      100192c8     task.obj
 0001:000182d0       $LN13                      100192d0     task.obj
 0001:000182dc       $LN11                      100192dc     task.obj
 0001:00018da4       $LN42                      10019da4     task.obj
 0001:00018dac       $LN41                      10019dac     task.obj
 0001:00018dc4       $LN39                      10019dc4     task.obj
 0001:00018dca       $LN38                      10019dca     task.obj
 0001:00018fdc       $LN20                      10019fdc     task.obj
 0001:00018fe4       $LN19                      10019fe4     task.obj
 0001:00018ff0       $LN17                      10019ff0     task.obj
 0001:0001924c       $LN16                      1001a24c     task.obj
 0001:00019254       $LN15                      1001a254     task.obj
 0001:00019260       $LN14                      1001a260     task.obj
 0001:00019558       $LN21                      1001a558     task.obj
 0001:00019560       $LN20                      1001a560     task.obj
 0001:0001956c       $LN18                      1001a56c     task.obj
 0001:00019688       $LN12                      1001a688     task.obj
 0001:00019690       $LN11                      1001a690     task.obj
 0001:0001969c       $LN9                       1001a69c     task.obj
 0001:000196b0       ?AssertOkay@internal@tbb@@YA_NABVtask@2@@Z 1001a6b0 f   task.obj
 0001:0001acc4       $LN10                      1001bcc4     task.obj
 0001:0001accc       $LN9                       1001bccc     task.obj
 0001:0001acd8       $LN7                       1001bcd8     task.obj
 0001:0001ad98       $LN9                       1001bd98     task.obj
 0001:0001ada0       $LN8                       1001bda0     task.obj
 0001:0001adac       $LN6                       1001bdac     task.obj
 0001:0001af14       $LN14                      1001bf14     task.obj
 0001:0001af1c       $LN13                      1001bf1c     task.obj
 0001:0001af28       $LN12                      1001bf28     task.obj
 0001:0001b174       $LN21                      1001c174     task.obj
 0001:0001b17c       $LN20                      1001c17c     task.obj
 0001:0001b188       $LN19                      1001c188     task.obj
 0001:0001bf10       $LN11                      1001cf10     task.obj
 0001:0001bf18       $LN10                      1001cf18     task.obj
 0001:0001bf24       $LN8                       1001cf24     task.obj
 0001:0001d806       __catch$?local_wait_for_all@?$CustomScheduler@UDefaultSchedulerTraits@internal@tbb@@@internal@tbb@@AAEXAAVtask@3@PAV43@@Z$4 1001e806 f i task.obj
 0001:0001d875       __catch$?local_wait_for_all@?$CustomScheduler@UDefaultSchedulerTraits@internal@tbb@@@internal@tbb@@AAEXAAVtask@3@PAV43@@Z$5 1001e875 f i task.obj
 0001:0001d927       __catch$?local_wait_for_all@?$CustomScheduler@UDefaultSchedulerTraits@internal@tbb@@@internal@tbb@@AAEXAAVtask@3@PAV43@@Z$6 1001e927 f i task.obj
 0001:0001dcbc       $LN190                     1001ecbc     task.obj
 0001:0001dcc4       $LN189                     1001ecc4     task.obj
 0001:0001dce8       $LN187                     1001ece8     task.obj
 0001:0001dcec       $LN186                     1001ecec     task.obj
 0001:0001dcf0       $LN185                     1001ecf0     task.obj
 0001:0001dcf4       $LN191                     1001ecf4     task.obj
 0001:0001eb4c       __catch$?local_wait_for_all@?$CustomScheduler@UIntelSchedulerTraits@internal@tbb@@@internal@tbb@@AAEXAAVtask@3@PAV43@@Z$4 1001fb4c f i task.obj
 0001:0001ebbb       __catch$?local_wait_for_all@?$CustomScheduler@UIntelSchedulerTraits@internal@tbb@@@internal@tbb@@AAEXAAVtask@3@PAV43@@Z$5 1001fbbb f i task.obj
 0001:0001ec6d       __catch$?local_wait_for_all@?$CustomScheduler@UIntelSchedulerTraits@internal@tbb@@@internal@tbb@@AAEXAAVtask@3@PAV43@@Z$6 1001fc6d f i task.obj
 0001:0001eff8       $LN190                     1001fff8     task.obj
 0001:0001f000       $LN189                     10020000     task.obj
 0001:0001f024       $LN187                     10020024     task.obj
 0001:0001f028       $LN186                     10020028     task.obj
 0001:0001f02c       $LN185                     1002002c     task.obj
 0001:0001f030       $LN191                     10020030     task.obj
 0001:0001f1a8       $LN21                      100201a8     task.obj
 0001:0001f1b0       $LN20                      100201b0     task.obj
 0001:0001f1bc       $LN19                      100201bc     task.obj
 0001:0001f5b8       $LN16                      100205b8     task.obj
 0001:0001f5c0       $LN15                      100205c0     task.obj
 0001:0001f5cc       $LN13                      100205cc     task.obj
 0001:00020744       $LN5                       10021744     tbb_misc.obj
 0001:0002074c       $LN4                       1002174c     tbb_misc.obj
 0001:00020758       $LN3                       10021758     tbb_misc.obj
 0001:00020760       ?__TBB_machine_fetchadd4@@YAHPCXH@Z 10021760 f   tbb_misc.obj
 0001:000207a0       ?__TBB_machine_pause@@YAXH@Z 100217a0 f   tbb_misc.obj
 0001:000208e8       $LN7                       100218e8     tbb_misc.obj
 0001:000208f0       $LN6                       100218f0     tbb_misc.obj
 0001:000208fc       $LN5                       100218fc     tbb_misc.obj
 0001:00020bb8       $LN9                       10021bb8     tbb_misc.obj
 0001:00020bc0       $LN8                       10021bc0     tbb_misc.obj
 0001:00020bcc       $LN7                       10021bcc     tbb_misc.obj
 0001:00020c4c       $LN5                       10021c4c     tbb_misc.obj
 0001:00020c54       $LN4                       10021c54     tbb_misc.obj
 0001:00020c60       $LN3                       10021c60     tbb_misc.obj
 0001:00020cc4       $LN5                       10021cc4     tbb_misc.obj
 0001:00020ccc       $LN4                       10021ccc     tbb_misc.obj
 0001:00020cd8       $LN3                       10021cd8     tbb_misc.obj
 0001:00020f94       $LN7                       10021f94     tbb_thread.obj
 0001:00020f9c       $LN6                       10021f9c     tbb_thread.obj
 0001:00020fa8       $LN5                       10021fa8     tbb_thread.obj
 0001:0002115c       $LN11                      1002215c     tbb_thread.obj
 0001:00021164       $LN10                      10022164     tbb_thread.obj
 0001:0002117c       $LN9                       1002217c     tbb_thread.obj
 0001:0002117f       $LN8                       1002217f     tbb_thread.obj
 0001:00021274       $LN8                       10022274     tbb_thread.obj
 0001:0002127c       $LN7                       1002227c     tbb_thread.obj
 0001:00021294       $LN5                       10022294     tbb_thread.obj
 0001:0002129c       $LN4                       1002229c     tbb_thread.obj
 0001:0002150c       $LN6                       1002250c     tbb_thread.obj
 0001:00021514       $LN5                       10022514     tbb_thread.obj
 0001:0002152c       $LN4                       1002252c     tbb_thread.obj
 0001:00021532       $LN3                       10022532     tbb_thread.obj
 0001:000215d0       $LN5                       100225d0     tbb_thread.obj
 0001:000215d8       $LN4                       100225d8     tbb_thread.obj
 0001:000215e4       $LN3                       100225e4     tbb_thread.obj
 0001:000215f0       $$000000                   100225f0     atomic_support.obj
 0001:00021730       $$000000                   10022730     lock_byte.obj
 0001:00021e10       ?ArrayUnwindFilter@@YAHPAU_EXCEPTION_POINTERS@@@Z 10022e10 f   MSVCRTD:ehvecdtr.obj
 0001:00021ed0       $$000000                   10022ed0     MSVCRTD:alloca16.obj
 0001:00022320       $$000000                   10023320     MSVCRTD:ftol3.obj
 0001:000226f0       _pre_c_init                100236f0 f   MSVCRTD:crtdll.obj
 0001:00022a80       ___DllMainCRTStartup       10023a80 f   MSVCRTD:crtdll.obj
 0001:00022c40       ?DebuggerProbe@@YAHK@Z     10023c40 f   MSVCRTD:error.obj
 0001:00022ce0       ?DebuggerRuntime@@YAHKHPAXPB_W@Z 10023ce0 f   MSVCRTD:error.obj
 0001:00023060       ?_getMemBlockDataString@@YAXPAD00I@Z 10024060 f   MSVCRTD:error.obj
 0001:000230d0       ?_strlen_priv@@YAIPBD@Z    100240d0 f   MSVCRTD:error.obj
 0001:000230f0       ?failwithmessage@@YAXPAXHHPBD@Z 100240f0 f   MSVCRTD:error.obj
 0001:000234e0       $$000000                   100244e0     MSVCRTD:chkstk.obj
 0001:000238b0       ?GetPdbDll@@YAPAUHINSTANCE__@@XZ 100248b0 f   MSVCRTD:pdblkup.obj
 0001:000239f0       ?GetPdbDllFromInstallPath@@YAPAUHINSTANCE__@@XZ 100249f0 f   MSVCRTD:pdblkup.obj
 0001:00023c20       ?GetPdbDllPathFromFilePath@@YAHPB_WPA_WI@Z 10024c20 f   MSVCRTD:pdblkup.obj
 0001:00024020       __unwindfunclet$??0concurrent_queue_iterator_base@internal@tbb@@IAE@ABVconcurrent_queue_base@12@@Z$0 10025020 f   concurrent_queue_v2.obj
 0001:0002402b       __ehhandler$??0concurrent_queue_iterator_base@internal@tbb@@IAE@ABVconcurrent_queue_base@12@@Z 1002502b f   concurrent_queue_v2.obj
 0001:00024046       __unwindfunclet$?push@micro_queue@internal@tbb@@QAEXPBXIAAVconcurrent_queue_base@23@@Z$0 10025046 f   concurrent_queue_v2.obj
 0001:0002404e       __unwindfunclet$?push@micro_queue@internal@tbb@@QAEXPBXIAAVconcurrent_queue_base@23@@Z$1 1002504e f   concurrent_queue_v2.obj
 0001:00024056       __ehhandler$?push@micro_queue@internal@tbb@@QAEXPBXIAAVconcurrent_queue_base@23@@Z 10025056 f   concurrent_queue_v2.obj
 0001:00024071       __unwindfunclet$?pop@micro_queue@internal@tbb@@QAE_NPAXIAAVconcurrent_queue_base@23@@Z$0 10025071 f   concurrent_queue_v2.obj
 0001:00024079       __ehhandler$?pop@micro_queue@internal@tbb@@QAE_NPAXIAAVconcurrent_queue_base@23@@Z 10025079 f   concurrent_queue_v2.obj
 0001:000240a0       __unwindfunclet$??1pop_finalizer@micro_queue@internal@tbb@@QAE@XZ$0 100250a0 f   concurrent_queue_v2.obj
 0001:000240a8       __ehhandler$??1pop_finalizer@micro_queue@internal@tbb@@QAE@XZ 100250a8 f   concurrent_queue_v2.obj
 0001:000240d0       __unwindfunclet$??$construct@PADAAPAD@?$allocator@D@std@@QAEXPAPADAAPAD@Z$0 100250d0 f   concurrent_vector_v2.obj
 0001:000240e1       __ehhandler$??$construct@PADAAPAD@?$allocator@D@std@@QAEXPAPADAAPAD@Z 100250e1 f   concurrent_vector_v2.obj
 0001:00024100       __unwindfunclet$??$construct@U_Container_proxy@std@@U12@@?$allocator@U_Container_proxy@std@@@std@@QAEXPAU_Container_proxy@1@$$QAU21@@Z$0 10025100 f   concurrent_vector_v2.obj
 0001:00024111       __ehhandler$??$construct@U_Container_proxy@std@@U12@@?$allocator@U_Container_proxy@std@@@std@@QAEXPAU_Container_proxy@1@$$QAU21@@Z 10025111 f   concurrent_vector_v2.obj
 0001:00024130       __unwindfunclet$??0?$_String_alloc@$0A@U?$_String_base_types@DV?$allocator@D@std@@@std@@@std@@QAE@ABV?$allocator@D@1@@Z$0 10025130 f   concurrent_vector_v2.obj
 0001:00024138       __ehhandler$??0?$_String_alloc@$0A@U?$_String_base_types@DV?$allocator@D@std@@@std@@@std@@QAE@ABV?$allocator@D@1@@Z 10025138 f   concurrent_vector_v2.obj
 0001:00024160       __unwindfunclet$??0?$basic_string@DU?$char_traits@D@std@@V?$allocator@D@2@@std@@QAE@PBD@Z$0 10025160 f   concurrent_vector_v2.obj
 0001:00024168       __ehhandler$??0?$basic_string@DU?$char_traits@D@std@@V?$allocator@D@2@@std@@QAE@PBD@Z 10025168 f   concurrent_vector_v2.obj
 0001:00024190       __ehhandler$?_Copy@?$basic_string@DU?$char_traits@D@std@@V?$allocator@D@2@@std@@QAEXII@Z 10025190 f   concurrent_vector_v2.obj
 0001:000241b0       __unwindfunclet$??0concurrent_queue_iterator_base_v3@internal@tbb@@IAE@ABVconcurrent_queue_base_v3@12@@Z$0 100251b0 f   concurrent_queue.obj
 0001:000241c3       __ehhandler$??0concurrent_queue_iterator_base_v3@internal@tbb@@IAE@ABVconcurrent_queue_base_v3@12@@Z 100251c3 f   concurrent_queue.obj
 0001:000241de       __unwindfunclet$?push@micro_queue@internal@tbb@@QAEXPBXIAAVconcurrent_queue_base_v3@23@@Z$4 100251de f   concurrent_queue.obj
 0001:000241e6       __ehhandler$?push@micro_queue@internal@tbb@@QAEXPBXIAAVconcurrent_queue_base_v3@23@@Z 100251e6 f   concurrent_queue.obj
 0001:00024201       __unwindfunclet$?pop@micro_queue@internal@tbb@@QAE_NPAXIAAVconcurrent_queue_base_v3@23@@Z$0 10025201 f   concurrent_queue.obj
 0001:00024209       __ehhandler$?pop@micro_queue@internal@tbb@@QAE_NPAXIAAVconcurrent_queue_base_v3@23@@Z 10025209 f   concurrent_queue.obj
 0001:00024224       __ehhandler$?assign@micro_queue@internal@tbb@@QAEAAU123@ABU123@AAVconcurrent_queue_base_v3@23@@Z 10025224 f   concurrent_queue.obj
 0001:0002423f       __unwindfunclet$?make_invalid@micro_queue@internal@tbb@@QAEXI@Z$0 1002523f f   concurrent_queue.obj
 0001:00024247       __ehhandler$?make_invalid@micro_queue@internal@tbb@@QAEXI@Z 10025247 f   concurrent_queue.obj
 0001:00024270       __unwindfunclet$??1micro_queue_pop_finalizer@internal@tbb@@QAE@XZ$0 10025270 f   concurrent_queue.obj
 0001:00024278       __ehhandler$??1micro_queue_pop_finalizer@internal@tbb@@QAE@XZ 10025278 f   concurrent_queue.obj
 0001:000242a0       __unwindfunclet$??1concurrent_vector_base_v3@internal@tbb@@IAE@XZ$0 100252a0 f   concurrent_vector.obj
 0001:000242b6       __ehhandler$??1concurrent_vector_base_v3@internal@tbb@@IAE@XZ 100252b6 f   concurrent_vector.obj
 0001:000242d1       __ehhandler$?internal_reserve@concurrent_vector_base_v3@internal@tbb@@IAEXIII@Z 100252d1 f   concurrent_vector.obj
 0001:000242ec       __unwindfunclet$?internal_grow@concurrent_vector_base_v3@internal@tbb@@IAEXIIIP6AXPAXPBXI@Z1@Z$0 100252ec f   concurrent_vector.obj
 0001:000242f4       __ehhandler$?internal_grow@concurrent_vector_base_v3@internal@tbb@@IAEXIIIP6AXPAXPBXI@Z1@Z 100252f4 f   concurrent_vector.obj
 0001:0002430f       __unwindfunclet$?internal_clear@concurrent_vector_base_v3@internal@tbb@@IAEIP6AXPAXI@Z@Z$0 1002530f f   concurrent_vector.obj
 0001:00024317       __ehhandler$?internal_clear@concurrent_vector_base_v3@internal@tbb@@IAEIP6AXPAXI@Z@Z 10025317 f   concurrent_vector.obj
 0001:00024332       __unwindfunclet$?internal_compact@concurrent_vector_base_v3@internal@tbb@@IAEPAXIPAXP6AX0I@ZP6AX0PBXI@Z@Z$2 10025332 f   concurrent_vector.obj
 0001:0002433a       __ehhandler$?internal_compact@concurrent_vector_base_v3@internal@tbb@@IAEPAXIPAXP6AX0I@ZP6AX0PBXI@Z@Z 1002533a f   concurrent_vector.obj
 0001:00024358       __unwindfunclet$?internal_resize@concurrent_vector_base_v3@internal@tbb@@IAEXIIIPBXP6AXPAXI@ZP6AX10I@Z@Z$0 10025358 f   concurrent_vector.obj
 0001:00024360       __unwindfunclet$?internal_resize@concurrent_vector_base_v3@internal@tbb@@IAEXIIIPBXP6AXPAXI@ZP6AX10I@Z@Z$1 10025360 f   concurrent_vector.obj
 0001:00024368       __ehhandler$?internal_resize@concurrent_vector_base_v3@internal@tbb@@IAEXIIIPBXP6AXPAXI@ZP6AX10I@Z@Z 10025368 f   concurrent_vector.obj
 0001:00024390       __ehhandler$?enable_segment@helper@concurrent_vector_base_v3@internal@tbb@@SAIAAV234@II@Z 10025390 f   concurrent_vector.obj
 0001:000243b0       __unwindfunclet$?add_filter@pipeline@tbb@@QAEXAAVfilter@2@@Z$0 100253b0 f   pipeline.obj
 0001:000243bb       __unwindfunclet$?add_filter@pipeline@tbb@@QAEXAAVfilter@2@@Z$1 100253bb f   pipeline.obj
 0001:000243c6       __unwindfunclet$?add_filter@pipeline@tbb@@QAEXAAVfilter@2@@Z$2 100253c6 f   pipeline.obj
 0001:000243d1       __ehhandler$?add_filter@pipeline@tbb@@QAEXAAVfilter@2@@Z 100253d1 f   pipeline.obj
 0001:000243ec       __unwindfunclet$?run@pipeline@tbb@@QAEXI@Z$0 100253ec f   pipeline.obj
 0001:000243f7       __ehhandler$?run@pipeline@tbb@@QAEXI@Z 100253f7 f   pipeline.obj
 0001:0002441f       __unwindfunclet$?run@pipeline@tbb@@QAEXIAAVtask_group_context@2@@Z$0 1002541f f   pipeline.obj
 0001:00024427       __unwindfunclet$?run@pipeline@tbb@@QAEXIAAVtask_group_context@2@@Z$1 10025427 f   pipeline.obj
 0001:00024438       __ehhandler$?run@pipeline@tbb@@QAEXIAAVtask_group_context@2@@Z 10025438 f   pipeline.obj
 0001:00024453       __unwindfunclet$?execute@stage_task@internal@tbb@@UAEPAVtask@3@XZ$2 10025453 f   pipeline.obj
 0001:00024464       __unwindfunclet$?execute@stage_task@internal@tbb@@UAEPAVtask@3@XZ$3 10025464 f   pipeline.obj
 0001:00024475       __ehhandler$?execute@stage_task@internal@tbb@@UAEPAVtask@3@XZ 10025475 f   pipeline.obj
 0001:00024490       __unwindfunclet$??$note_done@Vstage_task@internal@tbb@@@input_buffer@internal@tbb@@QAEXKAAVstage_task@12@@Z$0 10025490 f   pipeline.obj
 0001:00024498       __ehhandler$??$note_done@Vstage_task@internal@tbb@@@input_buffer@internal@tbb@@QAEXKAAVstage_task@12@@Z 10025498 f   pipeline.obj
 0001:000244c0       __unwindfunclet$??$put_token@Vstage_task@internal@tbb@@@input_buffer@internal@tbb@@QAE_NAAVstage_task@12@@Z$0 100254c0 f   pipeline.obj
 0001:000244c8       __ehhandler$??$put_token@Vstage_task@internal@tbb@@@input_buffer@internal@tbb@@QAE_NAAVstage_task@12@@Z 100254c8 f   pipeline.obj
 0001:000244f0       __unwindfunclet$??0pipeline_root_task@internal@tbb@@QAE@AAVpipeline@2@@Z$0 100254f0 f   pipeline.obj
 0001:000244f8       __ehhandler$??0pipeline_root_task@internal@tbb@@QAE@AAVpipeline@2@@Z 100254f8 f   pipeline.obj
 0001:00024520       __unwindfunclet$??0stage_task@internal@tbb@@QAE@AAVpipeline@2@@Z$0 10025520 f   pipeline.obj
 0001:00024528       __ehhandler$??0stage_task@internal@tbb@@QAE@AAVpipeline@2@@Z 10025528 f   pipeline.obj
 0001:00024550       __unwindfunclet$??1stage_task@internal@tbb@@UAE@XZ$0 10025550 f   pipeline.obj
 0001:00024558       __ehhandler$??1stage_task@internal@tbb@@UAE@XZ 10025558 f   pipeline.obj
 0001:00024580       __unwindfunclet$?execute@pipeline_root_task@internal@tbb@@EAEPAVtask@3@XZ$0 10025580 f   pipeline.obj
 0001:00024591       __unwindfunclet$?execute@pipeline_root_task@internal@tbb@@EAEPAVtask@3@XZ$1 10025591 f   pipeline.obj
 0001:000245a2       __ehhandler$?execute@pipeline_root_task@internal@tbb@@EAEPAVtask@3@XZ 100255a2 f   pipeline.obj
 0001:000245c0       __unwindfunclet$?put_item@input_buffer@internal@tbb@@QAEXAAUtask_info@23@@Z$0 100255c0 f   pipeline.obj
 0001:000245c8       __ehhandler$?put_item@input_buffer@internal@tbb@@QAEXAAUtask_info@23@@Z 100255c8 f   pipeline.obj
 0001:000245f0       __unwindfunclet$?return_item@input_buffer@internal@tbb@@QAE_NAAUtask_info@23@_N@Z$0 100255f0 f   pipeline.obj
 0001:000245f8       __ehhandler$?return_item@input_buffer@internal@tbb@@QAE_NAAUtask_info@23@_N@Z 100255f8 f   pipeline.obj
 0001:00024620       __unwindfunclet$?spawn_stage_task@stage_task@internal@tbb@@QAEXABUtask_info@23@@Z$0 10025620 f   pipeline.obj
 0001:00024631       __ehhandler$?spawn_stage_task@stage_task@internal@tbb@@QAEXABUtask_info@23@@Z 10025631 f   pipeline.obj
 0001:00024650       __unwindfunclet$?wake_some@private_server@rml@internal@tbb@@AAEXH@Z$1 10025650 f   private_server.obj
 0001:00024658       __ehhandler$?wake_some@private_server@rml@internal@tbb@@AAEXH@Z 10025658 f   private_server.obj
 0001:00024673       __unwindfunclet$??0private_server@rml@internal@tbb@@QAE@AAVtbb_client@123@@Z$0 10025673 f   private_server.obj
 0001:0002468d       __ehhandler$??0private_server@rml@internal@tbb@@QAE@AAVtbb_client@123@@Z 1002568d f   private_server.obj
 0001:000246a8       __unwindfunclet$?make_private_server@rml@internal@tbb@@YAPAVtbb_server@123@AAVtbb_client@123@@Z$0 100256a8 f   private_server.obj
 0001:000246b9       __ehhandler$?make_private_server@rml@internal@tbb@@YAPAVtbb_server@123@AAVtbb_client@123@@Z 100256b9 f   private_server.obj
 0001:000246e0       __unwindfunclet$??0private_worker@rml@internal@tbb@@IAE@AAVprivate_server@123@AAVtbb_client@123@I@Z$0 100256e0 f   private_server.obj
 0001:000246eb       __ehhandler$??0private_worker@rml@internal@tbb@@IAE@AAVprivate_server@123@AAVtbb_client@123@I@Z 100256eb f   private_server.obj
 0001:00024710       __unwindfunclet$?try_insert_in_asleep_list@private_server@rml@internal@tbb@@AAE_NAAVprivate_worker@234@@Z$0 10025710 f   private_server.obj
 0001:00024718       __ehhandler$?try_insert_in_asleep_list@private_server@rml@internal@tbb@@AAE_NAAVprivate_worker@234@@Z 10025718 f   private_server.obj
 0001:00024740       __ehhandler$?register_pending_exception@task_group_context@tbb@@QAEXXZ 10025740 f   task.obj
 0001:0002475b       __unwindfunclet$?allocate@captured_exception@tbb@@SAPAV12@PBD0@Z$0 1002575b f   task.obj
 0001:0002476c       __ehhandler$?allocate@captured_exception@tbb@@SAPAV12@PBD0@Z 1002576c f   task.obj
 0001:00024787       __unwindfunclet$?allocate@tbb_exception_ptr@internal@tbb@@SAPAV123@XZ$0 10025787 f   task.obj
 0001:0002478f       __ehhandler$?allocate@tbb_exception_ptr@internal@tbb@@SAPAV123@XZ 1002578f f   task.obj
 0001:000247aa       __unwindfunclet$?allocate@tbb_exception_ptr@internal@tbb@@SAPAV123@ABVtbb_exception@3@@Z$0 100257aa f   task.obj
 0001:000247b2       __ehhandler$?allocate@tbb_exception_ptr@internal@tbb@@SAPAV123@ABVtbb_exception@3@@Z 100257b2 f   task.obj
 0001:000247cd       __unwindfunclet$?observe@task_scheduler_observer_v3@internal@tbb@@QAEX_N@Z$0 100257cd f   task.obj
 0001:000247d8       __ehhandler$?observe@task_scheduler_observer_v3@internal@tbb@@QAEX_N@Z 100257d8 f   task.obj
 0001:000247f3       __unwindfunclet$?remove_ref_slow@observer_proxy@internal@tbb@@AAEXXZ$0 100257f3 f   task.obj
 0001:000247fb       __ehhandler$?remove_ref_slow@observer_proxy@internal@tbb@@AAEXXZ 100257fb f   task.obj
 0001:00024816       __unwindfunclet$?process_list@observer_proxy@internal@tbb@@SAPAV123@PAV123@_N1@Z$4 10025816 f   task.obj
 0001:0002481e       __ehhandler$?process_list@observer_proxy@internal@tbb@@SAPAV123@PAV123@_N1@Z 1002581e f   task.obj
 0001:00024839       __unwindfunclet$?allocate_arena@Arena@internal@tbb@@CAPAV123@III@Z$0 10025839 f   task.obj
 0001:0002484a       __ehhandler$?allocate_arena@Arena@internal@tbb@@CAPAV123@III@Z 1002584a f   task.obj
 0001:00024865       __unwindfunclet$?create_master@GenericScheduler@internal@tbb@@CAPAV123@PAVArena@23@@Z$0 10025865 f   task.obj
 0001:00024876       __unwindfunclet$?create_master@GenericScheduler@internal@tbb@@CAPAV123@PAVArena@23@@Z$1 10025876 f   task.obj
 0001:0002487e       __ehhandler$?create_master@GenericScheduler@internal@tbb@@CAPAV123@PAVArena@23@@Z 1002587e f   task.obj
 0001:00024899       __unwindfunclet$??0GenericScheduler@internal@tbb@@IAE@PAVArena@12@@Z$0 10025899 f   task.obj
 0001:000248a1       __ehhandler$??0GenericScheduler@internal@tbb@@IAE@PAVArena@12@@Z 100258a1 f   task.obj
 0001:000248bc       __unwindfunclet$?local_spawn@GenericScheduler@internal@tbb@@QAEXAAVtask@3@AAPAV43@@Z$0 100258bc f   task.obj
 0001:000248c7       __ehhandler$?local_spawn@GenericScheduler@internal@tbb@@QAEXAAVtask@3@AAPAV43@@Z 100258c7 f   task.obj
 0001:000248ef       __unwindfunclet$?local_spawn_root_and_wait@GenericScheduler@internal@tbb@@QAEXAAVtask@3@AAPAV43@@Z$0 100258ef f   task.obj
 0001:000248f7       __ehhandler$?local_spawn_root_and_wait@GenericScheduler@internal@tbb@@QAEXAAVtask@3@AAPAV43@@Z 100258f7 f   task.obj
 0001:00024912       __unwindfunclet$?propagate_cancellation@GenericScheduler@internal@tbb@@QAEXPAVtask_group_context@3@@Z$0 10025912 f   task.obj
 0001:0002491a       __ehhandler$?propagate_cancellation@GenericScheduler@internal@tbb@@QAEXPAVtask_group_context@3@@Z 1002591a f   task.obj
 0001:00024935       __unwindfunclet$?propagate_cancellation@GenericScheduler@internal@tbb@@QAEXXZ$0 10025935 f   task.obj
 0001:0002493d       __ehhandler$?propagate_cancellation@GenericScheduler@internal@tbb@@QAEXXZ 1002593d f   task.obj
 0001:00024960       __unwindfunclet$??$AllocateExceptionContainer@Vcaptured_exception@tbb@@@internal@tbb@@YAPAVtbb_exception_ptr@01@ABVcaptured_exception@1@@Z$0 10025960 f   task.obj
 0001:00024971       __ehhandler$??$AllocateExceptionContainer@Vcaptured_exception@tbb@@@internal@tbb@@YAPAVtbb_exception_ptr@01@ABVcaptured_exception@1@@Z 10025971 f   task.obj
 0001:00024990       __unwindfunclet$??$AllocateExceptionContainer@Vexception_ptr@std@@@internal@tbb@@YAPAVtbb_exception_ptr@01@ABVexception_ptr@std@@@Z$0 10025990 f   task.obj
 0001:000249a1       __ehhandler$??$AllocateExceptionContainer@Vexception_ptr@std@@@internal@tbb@@YAPAVtbb_exception_ptr@01@ABVexception_ptr@std@@@Z 100259a1 f   task.obj
 0001:000249c0       __unwindfunclet$??$make_exception_ptr@Vcaptured_exception@tbb@@@std@@YA?AVexception_ptr@0@Vcaptured_exception@tbb@@@Z$0 100259c0 f   task.obj
 0001:000249c8       __ehhandler$??$make_exception_ptr@Vcaptured_exception@tbb@@@std@@YA?AVexception_ptr@0@Vcaptured_exception@tbb@@@Z 100259c8 f   task.obj
 0001:000249f0       __unwindfunclet$??0auto_empty_task@internal@tbb@@QAE@PAVGenericScheduler@12@PAVtask_group_context@2@@Z$0 100259f0 f   task.obj
 0001:00024a01       __ehhandler$??0auto_empty_task@internal@tbb@@QAE@PAVGenericScheduler@12@PAVtask_group_context@2@@Z 10025a01 f   task.obj
 0001:00024a20       __unwindfunclet$?_Copy_exception@exception_ptr@std@@SA?AV12@PAXPBX@Z$0 10025a20 f   task.obj
 0001:00024a28       __ehhandler$?_Copy_exception@exception_ptr@std@@SA?AV12@PAXPBX@Z 10025a28 f   task.obj
 0001:00024a50       __unwindfunclet$?_Current_exception@exception_ptr@std@@SA?AV12@XZ$0 10025a50 f   task.obj
 0001:00024a58       __ehhandler$?_Current_exception@exception_ptr@std@@SA?AV12@XZ 10025a58 f   task.obj
 0001:00024a80       __unwindfunclet$?allocate_scheduler@?$CustomScheduler@UDefaultSchedulerTraits@internal@tbb@@@internal@tbb@@SAPAVGenericScheduler@23@PAVArena@23@@Z$0 10025a80 f   task.obj
 0001:00024a91       __ehhandler$?allocate_scheduler@?$CustomScheduler@UDefaultSchedulerTraits@internal@tbb@@@internal@tbb@@SAPAVGenericScheduler@23@PAVArena@23@@Z 10025a91 f   task.obj
 0001:00024ab0       __unwindfunclet$?allocate_scheduler@?$CustomScheduler@UIntelSchedulerTraits@internal@tbb@@@internal@tbb@@SAPAVGenericScheduler@23@PAVArena@23@@Z$0 10025ab0 f   task.obj
 0001:00024ac1       __ehhandler$?allocate_scheduler@?$CustomScheduler@UIntelSchedulerTraits@internal@tbb@@@internal@tbb@@SAPAVGenericScheduler@23@PAVArena@23@@Z 10025ac1 f   task.obj
 0001:00024ae0       __unwindfunclet$?finish_with_arena@Governor@internal@tbb@@SAXXZ$0 10025ae0 f   task.obj
 0001:00024ae8       __ehhandler$?finish_with_arena@Governor@internal@tbb@@SAXXZ 10025ae8 f   task.obj
 0001:00024b10       __ehhandler$?local_wait_for_all@?$CustomScheduler@UDefaultSchedulerTraits@internal@tbb@@@internal@tbb@@AAEXAAVtask@3@PAV43@@Z 10025b10 f   task.obj
 0001:00024b30       __ehhandler$?local_wait_for_all@?$CustomScheduler@UIntelSchedulerTraits@internal@tbb@@@internal@tbb@@AAEXAAVtask@3@PAV43@@Z 10025b30 f   task.obj
 0001:00024b50       __unwindfunclet$?obtain_arena@Governor@internal@tbb@@CAPAVArena@23@HI@Z$0 10025b50 f   task.obj
 0001:00024b58       __ehhandler$?obtain_arena@Governor@internal@tbb@@CAPAVArena@23@HI@Z 10025b58 f   task.obj
 0001:00024b80       __unwindfunclet$?rethrow_exception@std@@YAXVexception_ptr@1@@Z$0 10025b80 f   task.obj
 0001:00024b88       __ehhandler$?rethrow_exception@std@@YAXVexception_ptr@1@@Z 10025b88 f   task.obj
 0001:00024bb0       __unwindfunclet$?handle_win_error@internal@tbb@@YAXH@Z$0 10025bb0 f   tbb_thread.obj
 0001:00024bb8       __ehhandler$?handle_win_error@internal@tbb@@YAXH@Z 10025bb8 f   tbb_thread.obj
 0001:00024be0       ??__F?_Generic_object@?$_Error_objects@H@std@@2V_Generic_error_category@2@A@@YAXXZ 10025be0 f   concurrent_vector_v2.obj
 0001:00024c00       ??__F?_Iostream_object@?$_Error_objects@H@std@@2V_Iostream_error_category@2@A@@YAXXZ 10025c00 f   concurrent_vector_v2.obj
 0001:00024c20       ??__F?_System_object@?$_Error_objects@H@std@@2V_System_error_category@2@A@@YAXXZ 10025c20 f   concurrent_vector_v2.obj
 0001:00024c40       ??__F?_Generic_object@?$_Error_objects@H@std@@2V_Generic_error_category@2@A@@YAXXZ 10025c40 f   concurrent_hash_map.obj
 0001:00024c60       ??__F?_Iostream_object@?$_Error_objects@H@std@@2V_Iostream_error_category@2@A@@YAXXZ 10025c60 f   concurrent_hash_map.obj
 0001:00024c80       ??__F?_System_object@?$_Error_objects@H@std@@2V_System_error_category@2@A@@YAXXZ 10025c80 f   concurrent_hash_map.obj
 0001:00024ca0       ??__F?_Generic_object@?$_Error_objects@H@std@@2V_Generic_error_category@2@A@@YAXXZ 10025ca0 f   concurrent_queue.obj
 0001:00024cc0       ??__F?_Iostream_object@?$_Error_objects@H@std@@2V_Iostream_error_category@2@A@@YAXXZ 10025cc0 f   concurrent_queue.obj
 0001:00024ce0       ??__F?_System_object@?$_Error_objects@H@std@@2V_System_error_category@2@A@@YAXXZ 10025ce0 f   concurrent_queue.obj
 0001:00024d00       ??__F?_Generic_object@?$_Error_objects@H@std@@2V_Generic_error_category@2@A@@YAXXZ 10025d00 f   concurrent_vector.obj
 0001:00024d20       ??__F?_Iostream_object@?$_Error_objects@H@std@@2V_Iostream_error_category@2@A@@YAXXZ 10025d20 f   concurrent_vector.obj
 0001:00024d40       ??__F?_System_object@?$_Error_objects@H@std@@2V_System_error_category@2@A@@YAXXZ 10025d40 f   concurrent_vector.obj
 0001:00024d60       ??__F?theArenaMutex@Governor@internal@tbb@@0Vmutex@3@A@@YAXXZ 10025d60 f   task.obj
 0001:00024d80       ??__Fdummy_context@internal@tbb@@YAXXZ 10025d80 f   task.obj
 0001:00024da0       ??__Fthe_check_observer_proxy_count@internal@tbb@@YAXXZ 10025da0 f   task.obj
 0001:00024dc0       ??__Fthe_scheduler_list_mutex@internal@tbb@@YAXXZ 10025dc0 f   task.obj
 0001:00024de0       ??__F?_Generic_object@?$_Error_objects@H@std@@2V_Generic_error_category@2@A@@YAXXZ 10025de0 f   tbb_misc.obj
 0001:00024e00       ??__F?_Iostream_object@?$_Error_objects@H@std@@2V_Iostream_error_category@2@A@@YAXXZ 10025e00 f   tbb_misc.obj
 0001:00024e20       ??__F?_System_object@?$_Error_objects@H@std@@2V_System_error_category@2@A@@YAXXZ 10025e20 f   tbb_misc.obj
 0001:00024e40       ??__F?_Generic_object@?$_Error_objects@H@std@@2V_Generic_error_category@2@A@@YAXXZ 10025e40 f   tbb_thread.obj
 0001:00024e60       ??__F?_Iostream_object@?$_Error_objects@H@std@@2V_Iostream_error_category@2@A@@YAXXZ 10025e60 f   tbb_thread.obj
 0001:00024e80       ??__F?_System_object@?$_Error_objects@H@std@@2V_System_error_category@2@A@@YAXXZ 10025e80 f   tbb_thread.obj
 0002:000001fc       _piecewise_construct$initializer$ 100261fc     concurrent_vector_v2.obj
 0002:00000200       _allocator_arg$initializer$ 10026200     concurrent_vector_v2.obj
 0002:00000204       ?_Generic_object$initializer$@?$_Error_objects@H@std@@2P6AXXZA 10026204     concurrent_vector_v2.obj
 0002:00000208       ?_Iostream_object$initializer$@?$_Error_objects@H@std@@2P6AXXZA 10026208     concurrent_vector_v2.obj
 0002:0000020c       ?_System_object$initializer$@?$_Error_objects@H@std@@2P6AXXZA 1002620c     concurrent_vector_v2.obj
 0002:00000210       _piecewise_construct$initializer$ 10026210     concurrent_hash_map.obj
 0002:00000214       _allocator_arg$initializer$ 10026214     concurrent_hash_map.obj
 0002:00000218       ?id$initializer$@?$num_put@DV?$back_insert_iterator@V?$basic_string@DU?$char_traits@D@std@@V?$allocator@D@2@@std@@@std@@@std@@2P6AXXZA 10026218     concurrent_hash_map.obj
 0002:0000021c       ?id$initializer$@?$num_put@_WV?$back_insert_iterator@V?$basic_string@_WU?$char_traits@_W@std@@V?$allocator@_W@2@@std@@@std@@@std@@2P6AXXZA 1002621c     concurrent_hash_map.obj
 0002:00000220       _piecewise_construct$initializer$ 10026220     concurrent_queue.obj
 0002:00000224       _allocator_arg$initializer$ 10026224     concurrent_queue.obj
 0002:00000228       _piecewise_construct$initializer$ 10026228     concurrent_vector.obj
 0002:0000022c       _allocator_arg$initializer$ 1002622c     concurrent_vector.obj
 0002:00000230       _piecewise_construct$initializer$ 10026230     task.obj
 0002:00000234       _allocator_arg$initializer$ 10026234     task.obj
 0002:00000238       ?theArenaMutex$initializer$@Governor@internal@tbb@@0P6AXXZA 10026238     task.obj
 0002:0000023c       _the_scheduler_list_mutex$initializer$ 1002623c     task.obj
 0002:00000240       _dummy_context$initializer$ 10026240     task.obj
 0002:00000244       _the_check_observer_proxy_count$initializer$ 10026244     task.obj
 0002:00000248       _piecewise_construct$initializer$ 10026248     tbb_misc.obj
 0002:0000024c       _allocator_arg$initializer$ 1002624c     tbb_misc.obj
 0002:00000250       _piecewise_construct$initializer$ 10026250     tbb_thread.obj
 0002:00000254       _allocator_arg$initializer$ 10026254     tbb_thread.obj
 0002:00000260       _pcinit                    10026260     MSVCRTD:crtdll.obj
 0002:00000264       _pinit                     10026264     MSVCRTD:atonexit.obj
 0002:000002a8       $SG9259                    100262a8     concurrent_queue_v2.obj
 0002:000002cc       $SG9260                    100262cc     concurrent_queue_v2.obj
 0002:000002fc       $SG9319                    100262fc     concurrent_queue_v2.obj
 0002:0000032c       $SG9320                    1002632c     concurrent_queue_v2.obj
 0002:00000334       $SG9321                    10026334     concurrent_queue_v2.obj
 0002:00000364       $SG9325                    10026364     concurrent_queue_v2.obj
 0002:00000380       $SG9326                    10026380     concurrent_queue_v2.obj
 0002:000003b0       $SG9100                    100263b0     concurrent_queue_v2.obj
 0002:000003b4       $SG9101                    100263b4     concurrent_queue_v2.obj
 0002:000003e4       $SG9161                    100263e4     concurrent_queue_v2.obj
 0002:000003f4       $SG9162                    100263f4     concurrent_queue_v2.obj
 0002:0000041c       $SG9163                    1002641c     concurrent_queue_v2.obj
 0002:0000044c       $SG9166                    1002644c     concurrent_queue_v2.obj
 0002:0000045c       $SG9167                    1002645c     concurrent_queue_v2.obj
 0002:00000494       $SG9168                    10026494     concurrent_queue_v2.obj
 0002:000004c4       $SG9171                    100264c4     concurrent_queue_v2.obj
 0002:000004d4       $SG9172                    100264d4     concurrent_queue_v2.obj
 0002:0000050c       $SG9173                    1002650c     concurrent_queue_v2.obj
 0002:0000053c       $SG9176                    1002653c     concurrent_queue_v2.obj
 0002:0000054c       $SG9177                    1002654c     concurrent_queue_v2.obj
 0002:0000057c       $SG9178                    1002657c     concurrent_queue_v2.obj
 0002:000005ac       $SG9194                    100265ac     concurrent_queue_v2.obj
 0002:000005cc       $SG9195                    100265cc     concurrent_queue_v2.obj
 0002:000005ec       $SG9196                    100265ec     concurrent_queue_v2.obj
 0002:00000660       $SG36930                   10026660     concurrent_vector_v2.obj
 0002:000006ac       $SG36937                   100266ac     concurrent_vector_v2.obj
 0002:000006d8       $SG36938                   100266d8     concurrent_vector_v2.obj
 0002:000006f0       $SG36939                   100266f0     concurrent_vector_v2.obj
 0002:00000720       $SG36961                   10026720     concurrent_vector_v2.obj
 0002:00000750       $SG36962                   10026750     concurrent_vector_v2.obj
 0002:00000768       $SG36963                   10026768     concurrent_vector_v2.obj
 0002:00000798       $SG36981                   10026798     concurrent_vector_v2.obj
 0002:000007b0       $SG36982                   100267b0     concurrent_vector_v2.obj
 0002:000007e0       $SG37000                   100267e0     concurrent_vector_v2.obj
 0002:0000083c       $SG37001                   1002683c     concurrent_vector_v2.obj
 0002:00000854       $SG37002                   10026854     concurrent_vector_v2.obj
 0002:00000884       $SG37010                   10026884     concurrent_vector_v2.obj
 0002:000008b4       $SG37011                   100268b4     concurrent_vector_v2.obj
 0002:000008e4       $SG37021                   100268e4     concurrent_vector_v2.obj
 0002:000008f0       $SG37022                   100268f0     concurrent_vector_v2.obj
 0002:00000920       $SG37059                   10026920     concurrent_vector_v2.obj
 0002:00000940       $SG37060                   10026940     concurrent_vector_v2.obj
 0002:00000950       $SG37061                   10026950     concurrent_vector_v2.obj
 0002:00000980       $SG37074                   10026980     concurrent_vector_v2.obj
 0002:0000098c       $SG37075                   1002698c     concurrent_vector_v2.obj
 0002:000009bc       $SG37097                   100269bc     concurrent_vector_v2.obj
 0002:000009c8       $SG37098                   100269c8     concurrent_vector_v2.obj
 0002:000009f8       $SG37106                   100269f8     concurrent_vector_v2.obj
 0002:00000a00       $SG37107                   10026a00     concurrent_vector_v2.obj
 0002:00000a30       $SG37111                   10026a30     concurrent_vector_v2.obj
 0002:00000a38       $SG37112                   10026a38     concurrent_vector_v2.obj
 0002:00000c7c       $SG4457                    10026c7c     spin_rw_mutex_v2.obj
 0002:00000c9c       $SG4458                    10026c9c     spin_rw_mutex_v2.obj
 0002:00000cbc       $SG4459                    10026cbc     spin_rw_mutex_v2.obj
 0002:00000ce8       $SG4464                    10026ce8     spin_rw_mutex_v2.obj
 0002:00000d08       $SG4465                    10026d08     spin_rw_mutex_v2.obj
 0002:00000d28       $SG4466                    10026d28     spin_rw_mutex_v2.obj
 0002:00000d54       $SG4487                    10026d54     spin_rw_mutex_v2.obj
 0002:00000d80       $SG4488                    10026d80     spin_rw_mutex_v2.obj
 0002:00000d98       $SG4489                    10026d98     spin_rw_mutex_v2.obj
 0002:00000dc4       $SG4491                    10026dc4     spin_rw_mutex_v2.obj
 0002:00000df0       $SG4492                    10026df0     spin_rw_mutex_v2.obj
 0002:00000e0c       $SG4493                    10026e0c     spin_rw_mutex_v2.obj
 0002:00000e38       $SG4499                    10026e38     spin_rw_mutex_v2.obj
 0002:00000e64       $SG4500                    10026e64     spin_rw_mutex_v2.obj
 0002:00000e70       $SG4501                    10026e70     spin_rw_mutex_v2.obj
 0002:00000e9c       $SG4503                    10026e9c     spin_rw_mutex_v2.obj
 0002:00000ecc       $SG4504                    10026ecc     spin_rw_mutex_v2.obj
 0002:00000edc       $SG4505                    10026edc     spin_rw_mutex_v2.obj
 0002:00000f08       $SG4519                    10026f08     spin_rw_mutex_v2.obj
 0002:00000f30       $SG4520                    10026f30     spin_rw_mutex_v2.obj
 0002:00000f60       $SG4521                    10026f60     spin_rw_mutex_v2.obj
 0002:00000f8c       $SG4526                    10026f8c     spin_rw_mutex_v2.obj
 0002:00000fa8       $SG4527                    10026fa8     spin_rw_mutex_v2.obj
 0002:00000fc8       $SG4528                    10026fc8     spin_rw_mutex_v2.obj
 0002:00000ff4       $SG4534                    10026ff4     spin_rw_mutex_v2.obj
 0002:00001014       $SG4535                    10027014     spin_rw_mutex_v2.obj
 0002:00001034       $SG4536                    10027034     spin_rw_mutex_v2.obj
 0002:00001060       $SG4541                    10027060     spin_rw_mutex_v2.obj
 0002:0000108c       $SG4542                    1002708c     spin_rw_mutex_v2.obj
 0002:000010a4       $SG4543                    100270a4     spin_rw_mutex_v2.obj
 0002:000010d0       $SG4545                    100270d0     spin_rw_mutex_v2.obj
 0002:00001100       $SG4546                    10027100     spin_rw_mutex_v2.obj
 0002:0000111c       $SG4547                    1002711c     spin_rw_mutex_v2.obj
 0002:00001148       $SG4552                    10027148     spin_rw_mutex_v2.obj
 0002:00001174       $SG4553                    10027174     spin_rw_mutex_v2.obj
 0002:0000118c       $SG4554                    1002718c     spin_rw_mutex_v2.obj
 0002:000011b8       $SG4556                    100271b8     spin_rw_mutex_v2.obj
 0002:000011e4       $SG4557                    100271e4     spin_rw_mutex_v2.obj
 0002:00001200       $SG4558                    10027200     spin_rw_mutex_v2.obj
 0002:00001230       $SG59719                   10027230     rml_tbb.obj
 0002:00001298       $SG59720                   10027298     rml_tbb.obj
 0002:000012b8       $SG59734                   100272b8     rml_tbb.obj
 0002:000012cc       $SG59735                   100272cc     rml_tbb.obj
 0002:000012e4       $SG59736                   100272e4     rml_tbb.obj
 0002:000012f8       $SG59737                   100272f8     rml_tbb.obj
 0002:00001318       $SG59741                   10027318     rml_tbb.obj
 0002:00001328       $SG59756                   10027328     rml_tbb.obj
 0002:00001390       $SG59757                   10027390     rml_tbb.obj
 0002:000013c0       $SG59764                   100273c0     rml_tbb.obj
 0002:00001428       $SG59765                   10027428     rml_tbb.obj
 0002:00001470       _MallocLinkTable           10027470     cache_aligned_allocator.obj
 0002:00001480       $SG61579                   10027480     cache_aligned_allocator.obj
 0002:00001490       $SG61580                   10027490     cache_aligned_allocator.obj
 0002:000014a0       $SG61584                   100274a0     cache_aligned_allocator.obj
 0002:000014bc       $SG61585                   100274bc     cache_aligned_allocator.obj
 0002:000014f0       $SG61587                   100274f0     cache_aligned_allocator.obj
 0002:00001504       $SG61589                   10027504     cache_aligned_allocator.obj
 0002:00001514       $SG61590                   10027514     cache_aligned_allocator.obj
 0002:0000151c       $SG61591                   1002751c     cache_aligned_allocator.obj
 0002:00001528       $SG61597                   10027528     cache_aligned_allocator.obj
 0002:00001544       $SG61598                   10027544     cache_aligned_allocator.obj
 0002:00001578       $SG61603                   10027578     cache_aligned_allocator.obj
 0002:00001590       $SG61604                   10027590     cache_aligned_allocator.obj
 0002:000015c4       $SG61616                   100275c4     cache_aligned_allocator.obj
 0002:000015e4       $SG61617                   100275e4     cache_aligned_allocator.obj
 0002:000015f8       $SG61618                   100275f8     cache_aligned_allocator.obj
 0002:0000162c       $SG61620                   1002762c     cache_aligned_allocator.obj
 0002:00001644       $SG61621                   10027644     cache_aligned_allocator.obj
 0002:00001654       $SG61622                   10027654     cache_aligned_allocator.obj
 0002:00001688       $SG61644                   10027688     cache_aligned_allocator.obj
 0002:000016c0       $SG61645                   100276c0     cache_aligned_allocator.obj
 0002:000016dc       $SG61646                   100276dc     cache_aligned_allocator.obj
 0002:00001710       $SG61657                   10027710     cache_aligned_allocator.obj
 0002:00001750       $SG61658                   10027750     cache_aligned_allocator.obj
 0002:00001764       $SG61659                   10027764     cache_aligned_allocator.obj
 0002:00001798       $SG61665                   10027798     cache_aligned_allocator.obj
 0002:000017b8       $SG61666                   100277b8     cache_aligned_allocator.obj
 0002:000017f0       $SG61667                   100277f0     cache_aligned_allocator.obj
 0002:00001824       $SG61686                   10027824     cache_aligned_allocator.obj
 0002:0000185c       $SG61687                   1002785c     cache_aligned_allocator.obj
 0002:00001890       $SG61689                   10027890     cache_aligned_allocator.obj
 0002:000018f0       $SG61690                   100278f0     cache_aligned_allocator.obj
 0002:00001940       $SG92201                   10027940     concurrent_queue.obj
 0002:00001944       $SG92202                   10027944     concurrent_queue.obj
 0002:00001970       $SG92239                   10027970     concurrent_queue.obj
 0002:00001984       $SG92240                   10027984     concurrent_queue.obj
 0002:000019b0       $SG92327                   100279b0     concurrent_queue.obj
 0002:000019c0       $SG92328                   100279c0     concurrent_queue.obj
 0002:000019e8       $SG92329                   100279e8     concurrent_queue.obj
 0002:00001a14       $SG92332                   10027a14     concurrent_queue.obj
 0002:00001a24       $SG92333                   10027a24     concurrent_queue.obj
 0002:00001a5c       $SG92334                   10027a5c     concurrent_queue.obj
 0002:00001a88       $SG92337                   10027a88     concurrent_queue.obj
 0002:00001a98       $SG92338                   10027a98     concurrent_queue.obj
 0002:00001ad0       $SG92339                   10027ad0     concurrent_queue.obj
 0002:00001afc       $SG92342                   10027afc     concurrent_queue.obj
 0002:00001b0c       $SG92343                   10027b0c     concurrent_queue.obj
 0002:00001b3c       $SG92344                   10027b3c     concurrent_queue.obj
 0002:00001b68       $SG92359                   10027b68     concurrent_queue.obj
 0002:00001b88       $SG92360                   10027b88     concurrent_queue.obj
 0002:00001bac       $SG92361                   10027bac     concurrent_queue.obj
 0002:00001bd8       $SG92470                   10027bd8     concurrent_queue.obj
 0002:00001bfc       $SG92471                   10027bfc     concurrent_queue.obj
 0002:00001c28       $SG92492                   10027c28     concurrent_queue.obj
 0002:00001c48       $SG92493                   10027c48     concurrent_queue.obj
 0002:00001c68       $SG92494                   10027c68     concurrent_queue.obj
 0002:00001c98       $SG92513                   10027c98     concurrent_queue.obj
 0002:00001ce0       $SG92514                   10027ce0     concurrent_queue.obj
 0002:00001d44       $SG92515                   10027d44     concurrent_queue.obj
 0002:00001d70       $SG92624                   10027d70     concurrent_queue.obj
 0002:00001da0       $SG92625                   10027da0     concurrent_queue.obj
 0002:00001da8       $SG92626                   10027da8     concurrent_queue.obj
 0002:00001dd4       $SG92631                   10027dd4     concurrent_queue.obj
 0002:00001de4       $SG92632                   10027de4     concurrent_queue.obj
 0002:00001e98       $SG94208                   10027e98     concurrent_vector.obj
 0002:00001eb0       $SG94209                   10027eb0     concurrent_vector.obj
 0002:00001edc       $SG94227                   10027edc     concurrent_vector.obj
 0002:00001efc       $SG94228                   10027efc     concurrent_vector.obj
 0002:00001f0c       $SG94229                   10027f0c     concurrent_vector.obj
 0002:00001f38       $SG94270                   10027f38     concurrent_vector.obj
 0002:00001f44       $SG94271                   10027f44     concurrent_vector.obj
 0002:00001f70       $SG94307                   10027f70     concurrent_vector.obj
 0002:00001fb0       $SG94308                   10027fb0     concurrent_vector.obj
 0002:00001fdc       $SG94003                   10027fdc     concurrent_vector.obj
 0002:00002008       $SG94001                   10028008     concurrent_vector.obj
 0002:00002060       $SG94002                   10028060     concurrent_vector.obj
 0002:000020a0       $SG94024                   100280a0     concurrent_vector.obj
 0002:000020c4       $SG94032                   100280c4     concurrent_vector.obj
 0002:000020ec       $SG94036                   100280ec     concurrent_vector.obj
 0002:00002104       $SG94061                   10028104     concurrent_vector.obj
 0002:00002108       $SG94059                   10028108     concurrent_vector.obj
 0002:00002158       $SG94062                   10028158     concurrent_vector.obj
 0002:00002184       $SG94080                   10028184     concurrent_vector.obj
 0002:000021a0       $SG94081                   100281a0     concurrent_vector.obj
 0002:000021cc       $SG94110                   100281cc     concurrent_vector.obj
 0002:000021e4       $SG94111                   100281e4     concurrent_vector.obj
 0002:00002210       $SG94140                   10028210     concurrent_vector.obj
 0002:0000226c       $SG94141                   1002826c     concurrent_vector.obj
 0002:00002284       $SG94142                   10028284     concurrent_vector.obj
 0002:000022b0       $SG94150                   100282b0     concurrent_vector.obj
 0002:000022d8       $SG94151                   100282d8     concurrent_vector.obj
 0002:000024a0       $SG59707                   100284a0     dynamic_link.obj
 0002:000024dc       $SG59708                   100284dc     dynamic_link.obj
 0002:000024e8       $SG59709                   100284e8     dynamic_link.obj
 0002:00002510       $SG59717                   10028510     dynamic_link.obj
 0002:0000255c       $SG59718                   1002855c     dynamic_link.obj
 0002:00002564       $SG59719                   10028564     dynamic_link.obj
 0002:00002598       $SG62078                   10028598     mutex.obj
 0002:000025e0       $SG62079                   100285e0     mutex.obj
 0002:000025f0       $SG62080                   100285f0     mutex.obj
 0002:00002610       $SG62083                   10028610     mutex.obj
 0002:0000263c       $SG62084                   1002863c     mutex.obj
 0002:00002644       $SG62085                   10028644     mutex.obj
 0002:00002664       $SG62088                   10028664     mutex.obj
 0002:0000268c       $SG62089                   1002868c     mutex.obj
 0002:00002694       $SG62090                   10028694     mutex.obj
 0002:000026b4       $SG62095                   100286b4     mutex.obj
 0002:000026dc       $SG62096                   100286dc     mutex.obj
 0002:000026e8       $SG62097                   100286e8     mutex.obj
 0002:00002708       $SG62104                   10028708     mutex.obj
 0002:00002748       $SG62105                   10028748     mutex.obj
 0002:00002750       $SG62106                   10028750     mutex.obj
 0002:00002770       $SG62110                   10028770     mutex.obj
 0002:0000279c       $SG62111                   1002879c     mutex.obj
 0002:000027a4       $SG62112                   100287a4     mutex.obj
 0002:000027c4       $SG62115                   100287c4     mutex.obj
 0002:000027ec       $SG62116                   100287ec     mutex.obj
 0002:000027f4       $SG62117                   100287f4     mutex.obj
 0002:00002814       $SG62129                   10028814     mutex.obj
 0002:00002840       $SG62130                   10028840     mutex.obj
 0002:00002848       $SG62131                   10028848     mutex.obj
 0002:00002868       $SG62134                   10028868     mutex.obj
 0002:00002890       $SG62135                   10028890     mutex.obj
 0002:00002898       $SG62136                   10028898     mutex.obj
 0002:000028b8       $SG62140                   100288b8     mutex.obj
 0002:00002900       $SG62141                   10028900     mutex.obj
 0002:00002910       $SG62142                   10028910     mutex.obj
 0002:00002930       $SG62148                   10028930     mutex.obj
 0002:00002934       $SG62149                   10028934     mutex.obj
 0002:0000294c       $SG62160                   1002894c     mutex.obj
 0002:00002968       $SG62161                   10028968     mutex.obj
 0002:00002970       $SG62162                   10028970     mutex.obj
 0002:00002990       $SG62165                   10028990     mutex.obj
 0002:000029b8       $SG62166                   100289b8     mutex.obj
 0002:000029c0       $SG62167                   100289c0     mutex.obj
 0002:000029e0       $SG9220                    100289e0     pipeline.obj
 0002:00002a00       $SG9221                    10028a00     pipeline.obj
 0002:00002a04       $SG9222                    10028a04     pipeline.obj
 0002:00002a28       $SG9271                    10028a28     pipeline.obj
 0002:00002a4c       $SG9272                    10028a4c     pipeline.obj
 0002:00002a88       $SG9273                    10028a88     pipeline.obj
 0002:00002aac       $SG9275                    10028aac     pipeline.obj
 0002:00002ad0       $SG9276                    10028ad0     pipeline.obj
 0002:00002b0c       $SG9277                    10028b0c     pipeline.obj
 0002:00002b30       $SG9279                    10028b30     pipeline.obj
 0002:00002b60       $SG9280                    10028b60     pipeline.obj
 0002:00002b70       $SG9281                    10028b70     pipeline.obj
 0002:00002b94       $SG9319                    10028b94     pipeline.obj
 0002:00002ba8       $SG9320                    10028ba8     pipeline.obj
 0002:00002bc8       $SG9321                    10028bc8     pipeline.obj
 0002:00002bec       $SG9325                    10028bec     pipeline.obj
 0002:00002c00       $SG9326                    10028c00     pipeline.obj
 0002:00002c20       $SG9327                    10028c20     pipeline.obj
 0002:00002c44       $SG9340                    10028c44     pipeline.obj
 0002:00002c70       $SG9341                    10028c70     pipeline.obj
 0002:00002c8c       $SG9342                    10028c8c     pipeline.obj
 0002:00002cb0       $SG9344                    10028cb0     pipeline.obj
 0002:00002ccc       $SG9345                    10028ccc     pipeline.obj
 0002:00002cdc       $SG9346                    10028cdc     pipeline.obj
 0002:00002d00       $SG9368                    10028d00     pipeline.obj
 0002:00002d20       $SG9369                    10028d20     pipeline.obj
 0002:00002d58       $SG9370                    10028d58     pipeline.obj
 0002:00002d7c       $SG9373                    10028d7c     pipeline.obj
 0002:00002d9c       $SG9374                    10028d9c     pipeline.obj
 0002:00002dd4       $SG9375                    10028dd4     pipeline.obj
 0002:00002df8       $SG9378                    10028df8     pipeline.obj
 0002:00002e28       $SG9379                    10028e28     pipeline.obj
 0002:00002e5c       $SG9380                    10028e5c     pipeline.obj
 0002:00002e80       $SG9050                    10028e80     pipeline.obj
 0002:00002e9c       $SG9051                    10028e9c     pipeline.obj
 0002:00002ec0       $SG9053                    10028ec0     pipeline.obj
 0002:00002ed8       $SG9054                    10028ed8     pipeline.obj
 0002:000030e0       $SG66287                   100290e0     private_server.obj
 0002:000030f0       $SG66288                   100290f0     private_server.obj
 0002:00003100       $SG66289                   10029100     private_server.obj
 0002:0000312c       $SG66298                   1002912c     private_server.obj
 0002:00003148       $SG66299                   10029148     private_server.obj
 0002:00003174       $SG66394                   10029174     private_server.obj
 0002:00003190       $SG66395                   10029190     private_server.obj
 0002:000031bc       $SG66427                   100291bc     private_server.obj
 0002:000031d0       $SG66428                   100291d0     private_server.obj
 0002:000032bc       $SG61857                   100292bc     queuing_mutex.obj
 0002:000032e4       $SG61858                   100292e4     queuing_mutex.obj
 0002:000032f4       $SG61859                   100292f4     queuing_mutex.obj
 0002:0000331c       $SG61869                   1002931c     queuing_mutex.obj
 0002:00003344       $SG61870                   10029344     queuing_mutex.obj
 0002:00003350       $SG61871                   10029350     queuing_mutex.obj
 0002:00003378       $SG61890                   10029378     queuing_mutex.obj
 0002:000033a0       $SG61891                   100293a0     queuing_mutex.obj
 0002:000033b0       $SG61892                   100293b0     queuing_mutex.obj
 0002:000033d8       $SG61908                   100293d8     queuing_mutex.obj
 0002:000033ec       $SG61909                   100293ec     queuing_mutex.obj
 0002:00003400       $SG61910                   10029400     queuing_mutex.obj
 0002:00003428       $SG61926                   10029428     queuing_mutex.obj
 0002:00003430       $SG61927                   10029430     queuing_mutex.obj
 0002:00003458       $SG61938                   10029458     queuing_mutex.obj
 0002:0000345c       $SG61939                   1002945c     queuing_mutex.obj
 0002:00003484       $SG7168                    10029484     queuing_rw_mutex.obj
 0002:0000349c       $SG7169                    1002949c     queuing_rw_mutex.obj
 0002:000034c8       $SG7178                    100294c8     queuing_rw_mutex.obj
 0002:000034cc       $SG7179                    100294cc     queuing_rw_mutex.obj
 0002:000034f8       $SG6862                    100294f8     queuing_rw_mutex.obj
 0002:00003520       $SG6863                    10029520     queuing_rw_mutex.obj
 0002:00003530       $SG6864                    10029530     queuing_rw_mutex.obj
 0002:0000355c       $SG6877                    1002955c     queuing_rw_mutex.obj
 0002:00003578       $SG6878                    10029578     queuing_rw_mutex.obj
 0002:0000359c       $SG6879                    1002959c     queuing_rw_mutex.obj
 0002:000035c8       $SG6881                    100295c8     queuing_rw_mutex.obj
 0002:000035f0       $SG6882                    100295f0     queuing_rw_mutex.obj
 0002:000035fc       $SG6883                    100295fc     queuing_rw_mutex.obj
 0002:00003628       $SG6901                    10029628     queuing_rw_mutex.obj
 0002:00003648       $SG6902                    10029648     queuing_rw_mutex.obj
 0002:00003654       $SG6903                    10029654     queuing_rw_mutex.obj
 0002:00003680       $SG6910                    10029680     queuing_rw_mutex.obj
 0002:0000369c       $SG6911                    1002969c     queuing_rw_mutex.obj
 0002:000036c0       $SG6912                    100296c0     queuing_rw_mutex.obj
 0002:000036ec       $SG6914                    100296ec     queuing_rw_mutex.obj
 0002:00003714       $SG6915                    10029714     queuing_rw_mutex.obj
 0002:00003720       $SG6916                    10029720     queuing_rw_mutex.obj
 0002:0000374c       $SG6928                    1002974c     queuing_rw_mutex.obj
 0002:00003760       $SG6929                    10029760     queuing_rw_mutex.obj
 0002:00003780       $SG6930                    10029780     queuing_rw_mutex.obj
 0002:000037ac       $SG6957                    100297ac     queuing_rw_mutex.obj
 0002:000037d4       $SG6958                    100297d4     queuing_rw_mutex.obj
 0002:000037e4       $SG6959                    100297e4     queuing_rw_mutex.obj
 0002:00003810       $SG6975                    10029810     queuing_rw_mutex.obj
 0002:00003824       $SG6976                    10029824     queuing_rw_mutex.obj
 0002:00003838       $SG6977                    10029838     queuing_rw_mutex.obj
 0002:00003864       $SG7000                    10029864     queuing_rw_mutex.obj
 0002:00003878       $SG7001                    10029878     queuing_rw_mutex.obj
 0002:000038b0       $SG7002                    100298b0     queuing_rw_mutex.obj
 0002:000038dc       $SG7005                    100298dc     queuing_rw_mutex.obj
 0002:000038f8       $SG7006                    100298f8     queuing_rw_mutex.obj
 0002:0000391c       $SG7007                    1002991c     queuing_rw_mutex.obj
 0002:00003948       $SG7029                    10029948     queuing_rw_mutex.obj
 0002:0000396c       $SG7030                    1002996c     queuing_rw_mutex.obj
 0002:00003994       $SG7031                    10029994     queuing_rw_mutex.obj
 0002:000039c0       $SG7042                    100299c0     queuing_rw_mutex.obj
 0002:000039dc       $SG7043                    100299dc     queuing_rw_mutex.obj
 0002:000039ec       $SG7044                    100299ec     queuing_rw_mutex.obj
 0002:00003a18       $SG7047                    10029a18     queuing_rw_mutex.obj
 0002:00003a2c       $SG7048                    10029a2c     queuing_rw_mutex.obj
 0002:00003a58       $SG7067                    10029a58     queuing_rw_mutex.obj
 0002:00003a78       $SG7068                    10029a78     queuing_rw_mutex.obj
 0002:00003a8c       $SG7069                    10029a8c     queuing_rw_mutex.obj
 0002:00003ab8       $SG7085                    10029ab8     queuing_rw_mutex.obj
 0002:00003adc       $SG7086                    10029adc     queuing_rw_mutex.obj
 0002:00003ae4       $SG7087                    10029ae4     queuing_rw_mutex.obj
 0002:00003b10       $SG7095                    10029b10     queuing_rw_mutex.obj
 0002:00003b34       $SG7096                    10029b34     queuing_rw_mutex.obj
 0002:00003b50       $SG7097                    10029b50     queuing_rw_mutex.obj
 0002:00003b7c       $SG7106                    10029b7c     queuing_rw_mutex.obj
 0002:00003b98       $SG7107                    10029b98     queuing_rw_mutex.obj
 0002:00003bbc       $SG7108                    10029bbc     queuing_rw_mutex.obj
 0002:00003be8       $SG7127                    10029be8     queuing_rw_mutex.obj
 0002:00003c08       $SG7128                    10029c08     queuing_rw_mutex.obj
 0002:00003c34       $SG7131                    10029c34     queuing_rw_mutex.obj
 0002:00003c48       $SG7132                    10029c48     queuing_rw_mutex.obj
 0002:00003c7c       $SG7133                    10029c7c     queuing_rw_mutex.obj
 0002:00003ca8       $SG7136                    10029ca8     queuing_rw_mutex.obj
 0002:00003cc8       $SG7137                    10029cc8     queuing_rw_mutex.obj
 0002:00003cf4       $SG7141                    10029cf4     queuing_rw_mutex.obj
 0002:00003d10       $SG7142                    10029d10     queuing_rw_mutex.obj
 0002:00003d34       $SG7143                    10029d34     queuing_rw_mutex.obj
 0002:00003d60       $SG7145                    10029d60     queuing_rw_mutex.obj
 0002:00003d88       $SG7146                    10029d88     queuing_rw_mutex.obj
 0002:00003dac       $SG7147                    10029dac     queuing_rw_mutex.obj
 0002:00003dd8       $SG7149                    10029dd8     queuing_rw_mutex.obj
 0002:00003de4       $SG7150                    10029de4     queuing_rw_mutex.obj
 0002:00003e10       $SG62083                   10029e10     recursive_mutex.obj
 0002:00003e48       $SG62084                   10029e48     recursive_mutex.obj
 0002:00003e50       $SG62085                   10029e50     recursive_mutex.obj
 0002:00003e7c       $SG62088                   10029e7c     recursive_mutex.obj
 0002:00003eb0       $SG62089                   10029eb0     recursive_mutex.obj
 0002:00003eb8       $SG62090                   10029eb8     recursive_mutex.obj
 0002:00003ee4       $SG62095                   10029ee4     recursive_mutex.obj
 0002:00003f18       $SG62096                   10029f18     recursive_mutex.obj
 0002:00003f24       $SG62097                   10029f24     recursive_mutex.obj
 0002:00003f50       $SG62105                   10029f50     recursive_mutex.obj
 0002:00003f88       $SG62106                   10029f88     recursive_mutex.obj
 0002:00003f90       $SG62107                   10029f90     recursive_mutex.obj
 0002:00003fbc       $SG62110                   10029fbc     recursive_mutex.obj
 0002:00003ff0       $SG62111                   10029ff0     recursive_mutex.obj
 0002:00003ff8       $SG62112                   10029ff8     recursive_mutex.obj
 0002:00004024       $SG62124                   1002a024     recursive_mutex.obj
 0002:0000405c       $SG62125                   1002a05c     recursive_mutex.obj
 0002:00004064       $SG62126                   1002a064     recursive_mutex.obj
 0002:00004090       $SG62129                   1002a090     recursive_mutex.obj
 0002:000040c4       $SG62130                   1002a0c4     recursive_mutex.obj
 0002:000040cc       $SG62131                   1002a0cc     recursive_mutex.obj
 0002:000040f8       $SG62138                   1002a0f8     recursive_mutex.obj
 0002:000040fc       $SG62139                   1002a0fc     recursive_mutex.obj
 0002:00004128       $SG62150                   1002a128     recursive_mutex.obj
 0002:0000414c       $SG62151                   1002a14c     recursive_mutex.obj
 0002:00004154       $SG62152                   1002a154     recursive_mutex.obj
 0002:00004180       $SG62155                   1002a180     recursive_mutex.obj
 0002:000041b0       $SG62156                   1002a1b0     recursive_mutex.obj
 0002:000041b8       $SG62157                   1002a1b8     recursive_mutex.obj
 0002:000041e4       $SG62082                   1002a1e4     spin_mutex.obj
 0002:0000420c       $SG62083                   1002a20c     spin_mutex.obj
 0002:00004218       $SG62084                   1002a218     spin_mutex.obj
 0002:00004240       $SG62095                   1002a240     spin_mutex.obj
 0002:00004280       $SG62096                   1002a280     spin_mutex.obj
 0002:0000428c       $SG62097                   1002a28c     spin_mutex.obj
 0002:000042b4       $SG62099                   1002a2b4     spin_mutex.obj
 0002:000042cc       $SG62100                   1002a2cc     spin_mutex.obj
 0002:000042e4       $SG62101                   1002a2e4     spin_mutex.obj
 0002:0000430c       $SG62117                   1002a30c     spin_mutex.obj
 0002:00004334       $SG62118                   1002a334     spin_mutex.obj
 0002:00004340       $SG62119                   1002a340     spin_mutex.obj
 0002:00004368       $SG62129                   1002a368     spin_mutex.obj
 0002:0000436c       $SG62130                   1002a36c     spin_mutex.obj
 0002:0000438c       $SG5578                    1002a38c     spin_rw_mutex.obj
 0002:000043b8       $SG5579                    1002a3b8     spin_rw_mutex.obj
 0002:000043c8       $SG5580                    1002a3c8     spin_rw_mutex.obj
 0002:000043f0       $SG5586                    1002a3f0     spin_rw_mutex.obj
 0002:0000441c       $SG5587                    1002a41c     spin_rw_mutex.obj
 0002:00004428       $SG5588                    1002a428     spin_rw_mutex.obj
 0002:00004450       $SG5603                    1002a450     spin_rw_mutex.obj
 0002:00004478       $SG5604                    1002a478     spin_rw_mutex.obj
 0002:000044b4       $SG5605                    1002a4b4     spin_rw_mutex.obj
 0002:000044dc       $SG5618                    1002a4dc     spin_rw_mutex.obj
 0002:00004508       $SG5619                    1002a508     spin_rw_mutex.obj
 0002:00004518       $SG5620                    1002a518     spin_rw_mutex.obj
 0002:00004540       $SG5625                    1002a540     spin_rw_mutex.obj
 0002:0000456c       $SG5626                    1002a56c     spin_rw_mutex.obj
 0002:0000457c       $SG5627                    1002a57c     spin_rw_mutex.obj
 0002:000045a4       $SG5658                    1002a5a4     spin_rw_mutex.obj
 0002:000045a8       $SG5659                    1002a5a8     spin_rw_mutex.obj
 0002:000045d0       $SG86025                   1002a5d0     task.obj
 0002:00004606       $SG84666                   1002a606     task.obj
 0002:00004608       $SG86026                   1002a608     task.obj
 0002:0000460c       $SG86027                   1002a60c     task.obj
 0002:0000462c       $SG86034                   1002a62c     task.obj
 0002:0000466c       $SG86035                   1002a66c     task.obj
 0002:00004670       $SG86036                   1002a670     task.obj
 0002:00004690       $SG86046                   1002a690     task.obj
 0002:000046c8       $SG86047                   1002a6c8     task.obj
 0002:000046cc       $SG86048                   1002a6cc     task.obj
 0002:000046ec       $SG86053                   1002a6ec     task.obj
 0002:00004704       $SG86054                   1002a704     task.obj
 0002:00004718       $SG87079                   1002a718     task.obj
 0002:00004730       $SG86055                   1002a730     task.obj
 0002:00004750       $SG87080                   1002a750     task.obj
 0002:00004770       $SG86057                   1002a770     task.obj
 0002:0000479c       $SG86058                   1002a79c     task.obj
 0002:000047b4       $SG87083                   1002a7b4     task.obj
 0002:000047cc       $SG86059                   1002a7cc     task.obj
 0002:000047ec       $SG87092                   1002a7ec     task.obj
 0002:00004810       $SG87084                   1002a810     task.obj
 0002:00004854       $SG87085                   1002a854     task.obj
 0002:00004874       $SG87087                   1002a874     task.obj
 0002:00004884       $SG87088                   1002a884     task.obj
 0002:000048a4       $SG85050                   1002a8a4     task.obj
 0002:000048b0       $SG87093                   1002a8b0     task.obj
 0002:000048f4       $SG85045                   1002a8f4     task.obj
 0002:0000490c       $SG87094                   1002a90c     task.obj
 0002:0000492c       $SG85046                   1002a92c     task.obj
 0002:0000494c       $SG85051                   1002a94c     task.obj
 0002:0000496c       $SG87107                   1002a96c     task.obj
 0002:0000497c       $SG86083                   1002a97c     task.obj
 0002:000049bc       $SG87108                   1002a9bc     task.obj
 0002:000049dc       $SG86084                   1002a9dc     task.obj
 0002:000049e0       $SG86085                   1002a9e0     task.obj
 0002:00004a00       $SG84041                   1002aa00     task.obj
 0002:00004a1c       $SG84042                   1002aa1c     task.obj
 0002:00004a30       $SG84043                   1002aa30     task.obj
 0002:00004a68       $SG84044                   1002aa68     task.obj
 0002:00004a8c       $SG86093                   1002aa8c     task.obj
 0002:00004a9c       $SG86094                   1002aa9c     task.obj
 0002:00004abc       $SG84046                   1002aabc     task.obj
 0002:00004ad8       $SG84047                   1002aad8     task.obj
 0002:00004af4       $SG84048                   1002aaf4     task.obj
 0002:00004b10       $SG84049                   1002ab10     task.obj
 0002:00004b2c       $SG87123                   1002ab2c     task.obj
 0002:00004b48       $SG84051                   1002ab48     task.obj
 0002:00004b64       $SG87124                   1002ab64     task.obj
 0002:00004b84       $SG84053                   1002ab84     task.obj
 0002:00004ba0       $SG87126                   1002aba0     task.obj
 0002:00004bb4       $SG87127                   1002abb4     task.obj
 0002:00004bc4       $SG84055                   1002abc4     task.obj
 0002:00004be0       $SG87128                   1002abe0     task.obj
 0002:00004c00       $SG84056                   1002ac00     task.obj
 0002:00004c1c       $SG84057                   1002ac1c     task.obj
 0002:00004c38       $SG87130                   1002ac38     task.obj
 0002:00004c50       $SG84058                   1002ac50     task.obj
 0002:00004c6c       $SG87131                   1002ac6c     task.obj
 0002:00004c8c       $SG85084                   1002ac8c     task.obj
 0002:00004c98       $SG86109                   1002ac98     task.obj
 0002:00004ca8       $SG85085                   1002aca8     task.obj
 0002:00004cc8       $SG87134                   1002acc8     task.obj
 0002:00004d14       $SG86110                   1002ad14     task.obj
 0002:00004d34       $SG87135                   1002ad34     task.obj
 0002:00004d54       $SG85088                   1002ad54     task.obj
 0002:00004d64       $SG87137                   1002ad64     task.obj
 0002:00004d74       $SG85089                   1002ad74     task.obj
 0002:00004d9c       $SG87138                   1002ad9c     task.obj
 0002:00004dbc       $SG85090                   1002adbc     task.obj
 0002:00004ddc       $SG85094                   1002addc     task.obj
 0002:00004dfc       $SG85095                   1002adfc     task.obj
 0002:00004e2c       $SG85096                   1002ae2c     task.obj
 0002:00004e4c       $SG86121                   1002ae4c     task.obj
 0002:00004e60       $SG87145                   1002ae60     task.obj
 0002:00004ea0       $SG87146                   1002aea0     task.obj
 0002:00004ec4       $SG86122                   1002aec4     task.obj
 0002:00004ee4       $SG87147                   1002aee4     task.obj
 0002:00004f04       $SG87149                   1002af04     task.obj
 0002:00004f14       $SG87150                   1002af14     task.obj
 0002:00004f34       $SG85104                   1002af34     task.obj
 0002:00004f60       $SG85105                   1002af60     task.obj
 0002:00004f8c       $SG85106                   1002af8c     task.obj
 0002:00004fac       $SG85109                   1002afac     task.obj
 0002:00004fd4       $SG87158                   1002afd4     task.obj
 0002:00004ff0       $SG85110                   1002aff0     task.obj
 0002:00005010       $SG87159                   1002b010     task.obj
 0002:00005030       $SG87161                   1002b030     task.obj
 0002:00005064       $SG87162                   1002b064     task.obj
 0002:00005080       $SG87163                   1002b080     task.obj
 0002:000050a0       $SG87169                   1002b0a0     task.obj
 0002:000050b0       $SG87170                   1002b0b0     task.obj
 0002:000050d0       $SG85122                   1002b0d0     task.obj
 0002:00005104       $SG85123                   1002b104     task.obj
 0002:00005130       $SG85124                   1002b130     task.obj
 0002:00005150       $SG87175                   1002b150     task.obj
 0002:00005164       $SG85127                   1002b164     task.obj
 0002:00005188       $SG87176                   1002b188     task.obj
 0002:000051a0       $SG85128                   1002b1a0     task.obj
 0002:000051c0       $SG87177                   1002b1c0     task.obj
 0002:000051e0       $SG87181                   1002b1e0     task.obj
 0002:000051f0       $SG87182                   1002b1f0     task.obj
 0002:00005210       $SG87185                   1002b210     task.obj
 0002:00005250       $SG87186                   1002b250     task.obj
 0002:00005268       $SG87187                   1002b268     task.obj
 0002:00005288       $SG87190                   1002b288     task.obj
 0002:00005298       $SG87191                   1002b298     task.obj
 0002:000052b8       $SG87195                   1002b2b8     task.obj
 0002:000052f4       $SG87196                   1002b2f4     task.obj
 0002:000052fc       $SG87197                   1002b2fc     task.obj
 0002:0000531c       $SG87200                   1002b31c     task.obj
 0002:0000532c       $SG87201                   1002b32c     task.obj
 0002:00005334       $SG87202                   1002b334     task.obj
 0002:00005354       $SG86179                   1002b354     task.obj
 0002:00005360       $SG86178                   1002b360     task.obj
 0002:000053a8       $SG87204                   1002b3a8     task.obj
 0002:000053b8       $SG86180                   1002b3b8     task.obj
 0002:000053d8       $SG87205                   1002b3d8     task.obj
 0002:000053f8       $SG87208                   1002b3f8     task.obj
 0002:0000540c       $SG87209                   1002b40c     task.obj
 0002:00005420       $SG87210                   1002b420     task.obj
 0002:00005440       $SG87212                   1002b440     task.obj
 0002:00005450       $SG87213                   1002b450     task.obj
 0002:00005470       $SG87216                   1002b470     task.obj
 0002:00005498       $SG87217                   1002b498     task.obj
 0002:000054b0       $SG87218                   1002b4b0     task.obj
 0002:000054d0       $SG87221                   1002b4d0     task.obj
 0002:0000551c       $SG87222                   1002b51c     task.obj
 0002:0000553c       $SG87224                   1002b53c     task.obj
 0002:00005550       $SG87225                   1002b550     task.obj
 0002:00005594       $SG87226                   1002b594     task.obj
 0002:000055b4       $SG86236                   1002b5b4     task.obj
 0002:000055e8       $SG86237                   1002b5e8     task.obj
 0002:000055fc       $SG86238                   1002b5fc     task.obj
 0002:0000561c       $SG87268                   1002b61c     task.obj
 0002:00005620       $SG85220                   1002b620     task.obj
 0002:00005634       $SG87269                   1002b634     task.obj
 0002:00005654       $SG85221                   1002b654     task.obj
 0002:00005664       $SG85222                   1002b664     task.obj
 0002:00005684       $SG87277                   1002b684     task.obj
 0002:00005688       $SG86248                   1002b688     task.obj
 0002:000056d0       $SG86249                   1002b6d0     task.obj
 0002:000056e8       $SG86250                   1002b6e8     task.obj
 0002:00005708       $SG86253                   1002b708     task.obj
 0002:0000574c       $SG87278                   1002b74c     task.obj
 0002:0000576c       $SG86254                   1002b76c     task.obj
 0002:000057a0       $SG86255                   1002b7a0     task.obj
 0002:000057c0       $SG86257                   1002b7c0     task.obj
 0002:000057e0       $SG86258                   1002b7e0     task.obj
 0002:00005824       $SG86259                   1002b824     task.obj
 0002:00005844       $SG86261                   1002b844     task.obj
 0002:00005878       $SG86262                   1002b878     task.obj
 0002:000058a0       $SG86263                   1002b8a0     task.obj
 0002:000058c0       $SG87288                   1002b8c0     task.obj
 0002:000058c4       $SG87289                   1002b8c4     task.obj
 0002:000058e4       $SG87291                   1002b8e4     task.obj
 0002:000058f8       $SG86267                   1002b8f8     task.obj
 0002:00005930       $SG87292                   1002b930     task.obj
 0002:00005940       $SG86268                   1002b940     task.obj
 0002:0000594c       $SG87293                   1002b94c     task.obj
 0002:0000596c       $SG86269                   1002b96c     task.obj
 0002:0000598c       $SG87299                   1002b98c     task.obj
 0002:000059a4       $SG87300                   1002b9a4     task.obj
 0002:000059a8       $SG85253                   1002b9a8     task.obj
 0002:000059e8       $SG85254                   1002b9e8     task.obj
 0002:000059f8       $SG85255                   1002b9f8     task.obj
 0002:00005a18       $SG86280                   1002ba18     task.obj
 0002:00005a34       $SG87314                   1002ba34     task.obj
 0002:00005a6c       $SG87321                   1002ba6c     task.obj
 0002:00005aa8       $SG86281                   1002baa8     task.obj
 0002:00005aec       $SG86282                   1002baec     task.obj
 0002:00005b0c       $SG85261                   1002bb0c     task.obj
 0002:00005b34       $SG85262                   1002bb34     task.obj
 0002:00005b54       $SG85263                   1002bb54     task.obj
 0002:00005b74       $SG87315                   1002bb74     task.obj
 0002:00005b94       $SG86321                   1002bb94     task.obj
 0002:00005b98       $SG87322                   1002bb98     task.obj
 0002:00005bec       $SG87323                   1002bbec     task.obj
 0002:00005c0c       $SG87326                   1002bc0c     task.obj
 0002:00005c34       $SG87327                   1002bc34     task.obj
 0002:00005c6c       $SG87328                   1002bc6c     task.obj
 0002:00005c8c       $SG85299                   1002bc8c     task.obj
 0002:00005ca8       $SG87330                   1002bca8     task.obj
 0002:00005cf0       $SG87331                   1002bcf0     task.obj
 0002:00005d40       $SG87332                   1002bd40     task.obj
 0002:00005d60       $SG87334                   1002bd60     task.obj
 0002:00005d70       $SG87335                   1002bd70     task.obj
 0002:00005d90       $SG87344                   1002bd90     task.obj
 0002:00005da8       $SG86320                   1002bda8     task.obj
 0002:00005dc0       $SG87345                   1002bdc0     task.obj
 0002:00005de0       $SG87348                   1002bde0     task.obj
 0002:00005df8       $SG85300                   1002bdf8     task.obj
 0002:00005e2c       $SG86327                   1002be2c     task.obj
 0002:00005e48       $SG87349                   1002be48     task.obj
 0002:00005e8c       $SG85301                   1002be8c     task.obj
 0002:00005eac       $SG87350                   1002beac     task.obj
 0002:00005ecc       $SG85303                   1002becc     task.obj
 0002:00005ee8       $SG87352                   1002bee8     task.obj
 0002:00005ef8       $SG86328                   1002bef8     task.obj
 0002:00005f04       $SG85304                   1002bf04     task.obj
 0002:00005f24       $SG87353                   1002bf24     task.obj
 0002:00005f44       $SG86329                   1002bf44     task.obj
 0002:00005f64       $SG85305                   1002bf64     task.obj
 0002:00005f84       $SG86331                   1002bf84     task.obj
 0002:00005f9c       $SG86332                   1002bf9c     task.obj
 0002:00005fdc       $SG87357                   1002bfdc     task.obj
 0002:00006000       $SG86333                   1002c000     task.obj
 0002:00006020       $SG87358                   1002c020     task.obj
 0002:00006064       $SG87359                   1002c064     task.obj
 0002:00006084       $SG85316                   1002c084     task.obj
 0002:000060a0       $SG85317                   1002c0a0     task.obj
 0002:000060b4       $SG85318                   1002c0b4     task.obj
 0002:000060d4       $SG86345                   1002c0d4     task.obj
 0002:000060f8       $SG86346                   1002c0f8     task.obj
 0002:00006100       $SG86347                   1002c100     task.obj
 0002:00006120       $SG87372                   1002c120     task.obj
 0002:00006130       $SG87373                   1002c130     task.obj
 0002:00006150       $SG85329                   1002c150     task.obj
 0002:00006160       $SG85330                   1002c160     task.obj
 0002:00006180       $SG86356                   1002c180     task.obj
 0002:00006194       $SG86357                   1002c194     task.obj
 0002:000061b4       $SG86359                   1002c1b4     task.obj
 0002:000061d0       $SG86360                   1002c1d0     task.obj
 0002:000061f0       $SG85336                   1002c1f0     task.obj
 0002:0000620c       $SG85337                   1002c20c     task.obj
 0002:00006228       $SG85338                   1002c228     task.obj
 0002:00006248       $SG87388                   1002c248     task.obj
 0002:00006264       $SG87389                   1002c264     task.obj
 0002:00006284       $SG85341                   1002c284     task.obj
 0002:00006294       $SG85342                   1002c294     task.obj
 0002:000062b4       $SG87391                   1002c2b4     task.obj
 0002:000062c8       $SG87392                   1002c2c8     task.obj
 0002:000062d8       $SG87393                   1002c2d8     task.obj
 0002:000062f8       $SG86369                   1002c2f8     task.obj
 0002:00006324       $SG86379                   1002c324     task.obj
 0002:00006360       $SG86370                   1002c360     task.obj
 0002:000063a8       $SG87395                   1002c3a8     task.obj
 0002:000063c0       $SG86371                   1002c3c0     task.obj
 0002:000063e0       $SG87396                   1002c3e0     task.obj
 0002:00006400       $SG86373                   1002c400     task.obj
 0002:00006420       $SG86374                   1002c420     task.obj
 0002:00006440       $SG87399                   1002c440     task.obj
 0002:0000648c       $SG86375                   1002c48c     task.obj
 0002:000064ac       $SG87400                   1002c4ac     task.obj
 0002:000064cc       $SG87402                   1002c4cc     task.obj
 0002:000064dc       $SG87403                   1002c4dc     task.obj
 0002:000064fc       $SG86380                   1002c4fc     task.obj
 0002:00006520       $SG86381                   1002c520     task.obj
 0002:00006540       $SG87410                   1002c540     task.obj
 0002:00006580       $SG87411                   1002c580     task.obj
 0002:000065a4       $SG87412                   1002c5a4     task.obj
 0002:000065c4       $SG87414                   1002c5c4     task.obj
 0002:000065d4       $SG87415                   1002c5d4     task.obj
 0002:000065f4       $SG87423                   1002c5f4     task.obj
 0002:00006610       $SG87424                   1002c610     task.obj
 0002:00006630       $SG87426                   1002c630     task.obj
 0002:00006664       $SG87427                   1002c664     task.obj
 0002:00006680       $SG87428                   1002c680     task.obj
 0002:000066a0       $SG86408                   1002c6a0     task.obj
 0002:000066c8       $SG86409                   1002c6c8     task.obj
 0002:000066d8       $SG87434                   1002c6d8     task.obj
 0002:000066e8       $SG86410                   1002c6e8     task.obj
 0002:00006708       $SG87435                   1002c708     task.obj
 0002:00006728       $SG86412                   1002c728     task.obj
 0002:0000676c       $SG86413                   1002c76c     task.obj
 0002:0000679c       $SG86414                   1002c79c     task.obj
 0002:000067bc       $SG87440                   1002c7bc     task.obj
 0002:000067d0       $SG87441                   1002c7d0     task.obj
 0002:000067e8       $SG86417                   1002c7e8     task.obj
 0002:0000681c       $SG87442                   1002c81c     task.obj
 0002:0000683c       $SG86418                   1002c83c     task.obj
 0002:00006850       $SG86419                   1002c850     task.obj
 0002:00006870       $SG87446                   1002c870     task.obj
 0002:00006880       $SG87447                   1002c880     task.obj
 0002:000068a0       $SG87450                   1002c8a0     task.obj
 0002:000068e0       $SG86426                   1002c8e0     task.obj
 0002:00006938       $SG87451                   1002c938     task.obj
 0002:00006950       $SG86427                   1002c950     task.obj
 0002:00006954       $SG87452                   1002c954     task.obj
 0002:00006974       $SG86428                   1002c974     task.obj
 0002:00006994       $SG87455                   1002c994     task.obj
 0002:000069a4       $SG87456                   1002c9a4     task.obj
 0002:000069c4       $SG87460                   1002c9c4     task.obj
 0002:00006a00       $SG87461                   1002ca00     task.obj
 0002:00006a08       $SG87462                   1002ca08     task.obj
 0002:00006a28       $SG87465                   1002ca28     task.obj
 0002:00006a38       $SG87466                   1002ca38     task.obj
 0002:00006a40       $SG87467                   1002ca40     task.obj
 0002:00006a60       $SG87469                   1002ca60     task.obj
 0002:00006a70       $SG87470                   1002ca70     task.obj
 0002:00006a90       $SG87473                   1002ca90     task.obj
 0002:00006aa4       $SG87474                   1002caa4     task.obj
 0002:00006ab8       $SG87475                   1002cab8     task.obj
 0002:00006ad8       $SG85427                   1002cad8     task.obj
 0002:00006af4       $SG85428                   1002caf4     task.obj
 0002:00006b08       $SG87477                   1002cb08     task.obj
 0002:00006b18       $SG85429                   1002cb18     task.obj
 0002:00006b38       $SG87478                   1002cb38     task.obj
 0002:00006b58       $SG87481                   1002cb58     task.obj
 0002:00006b80       $SG87482                   1002cb80     task.obj
 0002:00006b98       $SG87483                   1002cb98     task.obj
 0002:00006bb8       $SG87486                   1002cbb8     task.obj
 0002:00006c04       $SG87487                   1002cc04     task.obj
 0002:00006c24       $SG87489                   1002cc24     task.obj
 0002:00006c38       $SG87490                   1002cc38     task.obj
 0002:00006c7c       $SG87491                   1002cc7c     task.obj
 0002:00006c9c       $SG86483                   1002cc9c     task.obj
 0002:00006ca4       $SG86484                   1002cca4     task.obj
 0002:00006cc4       $SG86488                   1002ccc4     task.obj
 0002:00006ccc       $SG86489                   1002cccc     task.obj
 0002:00006cec       $SG86494                   1002ccec     task.obj
 0002:00006d04       $SG86495                   1002cd04     task.obj
 0002:00006d24       $SG87533                   1002cd24     task.obj
 0002:00006d28       $SG87534                   1002cd28     task.obj
 0002:00006d48       $SG86513                   1002cd48     task.obj
 0002:00006d64       $SG86514                   1002cd64     task.obj
 0002:00006d84       $SG87542                   1002cd84     task.obj
 0002:00006d88       $SG87543                   1002cd88     task.obj
 0002:00006da8       $SG86528                   1002cda8     task.obj
 0002:00006dc8       $SG87553                   1002cdc8     task.obj
 0002:00006dcc       $SG86529                   1002cdcc     task.obj
 0002:00006dec       $SG87554                   1002cdec     task.obj
 0002:00006e0c       $SG87556                   1002ce0c     task.obj
 0002:00006e20       $SG87557                   1002ce20     task.obj
 0002:00006e30       $SG87558                   1002ce30     task.obj
 0002:00006e50       $SG86534                   1002ce50     task.obj
 0002:00006e64       $SG86535                   1002ce64     task.obj
 0002:00006e78       $SG86536                   1002ce78     task.obj
 0002:00006e98       $SG86539                   1002ce98     task.obj
 0002:00006eb4       $SG87564                   1002ceb4     task.obj
 0002:00006ecc       $SG86540                   1002cecc     task.obj
 0002:00006ed4       $SG87565                   1002ced4     task.obj
 0002:00006ed8       $SG86541                   1002ced8     task.obj
 0002:00006ef8       $SG86544                   1002cef8     task.obj
 0002:00006f08       $SG86545                   1002cf08     task.obj
 0002:00006f28       $SG87579                   1002cf28     task.obj
 0002:00006f60       $SG87580                   1002cf60     task.obj
 0002:00006f80       $SG87586                   1002cf80     task.obj
 0002:00006fbc       $SG85591                   1002cfbc     task.obj
 0002:00006fe0       $SG87587                   1002cfe0     task.obj
 0002:00007034       $SG86563                   1002d034     task.obj
 0002:00007054       $SG87588                   1002d054     task.obj
 0002:00007074       $SG86564                   1002d074     task.obj
 0002:0000708c       $SG86565                   1002d08c     task.obj
 0002:000070ac       $SG87591                   1002d0ac     task.obj
 0002:000070d4       $SG87592                   1002d0d4     task.obj
 0002:0000710c       $SG87593                   1002d10c     task.obj
 0002:0000712c       $SG85634                   1002d12c     task.obj
 0002:00007148       $SG87595                   1002d148     task.obj
 0002:00007190       $SG87596                   1002d190     task.obj
 0002:000071e0       $SG87597                   1002d1e0     task.obj
 0002:00007200       $SG87599                   1002d200     task.obj
 0002:00007210       $SG87600                   1002d210     task.obj
 0002:00007230       $SG85569                   1002d230     task.obj
 0002:00007248       $SG85570                   1002d248     task.obj
 0002:00007268       $SG85572                   1002d268     task.obj
 0002:00007278       $SG85573                   1002d278     task.obj
 0002:00007298       $SG85590                   1002d298     task.obj
 0002:000072b8       $SG85592                   1002d2b8     task.obj
 0002:000072d8       $SG85635                   1002d2d8     task.obj
 0002:000072f8       $SG85636                   1002d2f8     task.obj
 0002:00007318       _Primes                    1002d318     task.obj
 0002:00007418       $SG85648                   1002d418     task.obj
 0002:00007438       $SG85649                   1002d438     task.obj
 0002:0000745c       $SG85650                   1002d45c     task.obj
 0002:0000747c       $SG85655                   1002d47c     task.obj
 0002:0000748c       $SG85656                   1002d48c     task.obj
 0002:000074ac       $SG85664                   1002d4ac     task.obj
 0002:000074c4       $SG85665                   1002d4c4     task.obj
 0002:000074e4       $SG85667                   1002d4e4     task.obj
 0002:000074ec       $SG85668                   1002d4ec     task.obj
 0002:0000750c       $SG85676                   1002d50c     task.obj
 0002:00007530       $SG85677                   1002d530     task.obj
 0002:00007544       $SG85678                   1002d544     task.obj
 0002:00007564       $SG84656                   1002d564     task.obj
 0002:00007570       $SG85681                   1002d570     task.obj
 0002:000075a8       $SG85682                   1002d5a8     task.obj
 0002:000075e4       $SG85683                   1002d5e4     task.obj
 0002:00007604       $SG84660                   1002d604     task.obj
 0002:0000760c       $SG84661                   1002d60c     task.obj
 0002:00007610       $SG84663                   1002d610     task.obj
 0002:00007618       $SG84664                   1002d618     task.obj
 0002:0000761c       $SG84670                   1002d61c     task.obj
 0002:00007624       $SG84671                   1002d624     task.obj
 0002:0000762c       $SG84672                   1002d62c     task.obj
 0002:00007638       $SG85776                   1002d638     task.obj
 0002:00007660       $SG85777                   1002d660     task.obj
 0002:00007698       $SG85778                   1002d698     task.obj
 0002:000076b8       $SG85804                   1002d6b8     task.obj
 0002:000076e0       $SG85805                   1002d6e0     task.obj
 0002:000076ec       $SG85806                   1002d6ec     task.obj
 0002:0000770c       $SG85808                   1002d70c     task.obj
 0002:00007734       $SG85809                   1002d734     task.obj
 0002:0000773c       $SG85810                   1002d73c     task.obj
 0002:0000775c       $SG85812                   1002d75c     task.obj
 0002:00007778       $SG85813                   1002d778     task.obj
 0002:00007784       $SG85814                   1002d784     task.obj
 0002:000077a4       $SG85816                   1002d7a4     task.obj
 0002:000077c4       $SG85817                   1002d7c4     task.obj
 0002:000077f4       $SG85818                   1002d7f4     task.obj
 0002:00007814       $SG85821                   1002d814     task.obj
 0002:00007838       $SG85822                   1002d838     task.obj
 0002:0000786c       $SG85823                   1002d86c     task.obj
 0002:0000788c       $SG85828                   1002d88c     task.obj
 0002:000078b8       $SG85829                   1002d8b8     task.obj
 0002:000078c8       $SG85830                   1002d8c8     task.obj
 0002:000078e8       $SG85832                   1002d8e8     task.obj
 0002:00007910       $SG85833                   1002d910     task.obj
 0002:00007918       $SG85834                   1002d918     task.obj
 0002:00007938       $SG85836                   1002d938     task.obj
 0002:00007954       $SG85837                   1002d954     task.obj
 0002:00007960       $SG85838                   1002d960     task.obj
 0002:00007980       $SG85840                   1002d980     task.obj
 0002:000079a0       $SG85841                   1002d9a0     task.obj
 0002:00007a04       $SG85842                   1002da04     task.obj
 0002:00007a24       $SG85876                   1002da24     task.obj
 0002:00007a48       $SG85877                   1002da48     task.obj
 0002:00007a74       $SG85878                   1002da74     task.obj
 0002:00007a94       $SG85883                   1002da94     task.obj
 0002:00007aa4       $SG85884                   1002daa4     task.obj
 0002:00007ab0       $SG85885                   1002dab0     task.obj
 0002:00007ad0       $SG85887                   1002dad0     task.obj
 0002:00007af4       $SG85888                   1002daf4     task.obj
 0002:00007b1c       $SG85889                   1002db1c     task.obj
 0002:00007b3c       $SG85892                   1002db3c     task.obj
 0002:00007b68       $SG85893                   1002db68     task.obj
 0002:00007b90       $SG85894                   1002db90     task.obj
 0002:00007bb0       $SG85896                   1002dbb0     task.obj
 0002:00007be4       $SG85897                   1002dbe4     task.obj
 0002:00007c0c       $SG85898                   1002dc0c     task.obj
 0002:00007c2c       $SG85935                   1002dc2c     task.obj
 0002:00007c40       $SG85936                   1002dc40     task.obj
 0002:00007c60       $SG85944                   1002dc60     task.obj
 0002:00007c8c       $SG85945                   1002dc8c     task.obj
 0002:00007ca4       $SG85946                   1002dca4     task.obj
 0002:00007cc4       $SG85949                   1002dcc4     task.obj
 0002:00007cec       $SG85958                   1002dcec     task.obj
 0002:00007d18       $SG85950                   1002dd18     task.obj
 0002:00007d70       $SG85951                   1002dd70     task.obj
 0002:00007d90       $SG85959                   1002dd90     task.obj
 0002:00007da8       $SG85960                   1002dda8     task.obj
 0002:00007dc8       $SG85963                   1002ddc8     task.obj
 0002:00007dfc       $SG85964                   1002ddfc     task.obj
 0002:00007e14       $SG85965                   1002de14     task.obj
 0002:00007e34       $SG85967                   1002de34     task.obj
 0002:00007e74       $SG85968                   1002de74     task.obj
 0002:00007e8c       $SG85969                   1002de8c     task.obj
 0002:00007eac       $SG85983                   1002deac     task.obj
 0002:00007ec4       $SG85984                   1002dec4     task.obj
 0002:00007ee4       $SG85986                   1002dee4     task.obj
 0002:00007f00       $SG85987                   1002df00     task.obj
 0002:00007f20       $SG85989                   1002df20     task.obj
 0002:00007f3c       $SG85990                   1002df3c     task.obj
 0002:00007f5c       $SG86001                   1002df5c     task.obj
 0002:00007f64       $SG84977                   1002df64     task.obj
 0002:00007fa4       $SG86002                   1002dfa4     task.obj
 0002:00007fc4       $SG84978                   1002dfc4     task.obj
 0002:00007fc8       $SG84979                   1002dfc8     task.obj
 0002:00007fe8       $SG86004                   1002dfe8     task.obj
 0002:00007ff8       $SG86005                   1002dff8     task.obj
 0002:00008018       $SG84984                   1002e018     task.obj
 0002:0000804c       $SG84985                   1002e04c     task.obj
 0002:00008060       $SG86010                   1002e060     task.obj
 0002:00008068       $SG84986                   1002e068     task.obj
 0002:00008088       $SG86011                   1002e088     task.obj
 0002:000080a8       $SG86012                   1002e0a8     task.obj
 0002:00008f28       $SG91261                   1002ef28     tbb_misc.obj
 0002:00008f2d       $SG5950                    1002ef2d     tbb_misc.obj
 0002:00008f30       $SG91290                   1002ef30     tbb_misc.obj
 0002:00008f34       $SG91302                   1002ef34     tbb_misc.obj
 0002:00008f38       _VersionString             1002ef38     tbb_misc.obj
 0002:00008fd4       $SG91303                   1002efd4     tbb_misc.obj
 0002:00008fe0       $SG92545                   1002efe0     tbb_misc.obj
 0002:00009018       $SG5946                    1002f018     tbb_misc.obj
 0002:00009044       $SG5948                    1002f044     tbb_misc.obj
 0002:00009060       $SG5951                    1002f060     tbb_misc.obj
 0002:00009068       $SG5952                    1002f068     tbb_misc.obj
 0002:00009078       $SG5962                    1002f078     tbb_misc.obj
 0002:0000908c       $SG91544                   1002f08c     tbb_thread.obj
 0002:000090b8       $SG91545                   1002f0b8     tbb_thread.obj
 0002:000090c4       $SG91546                   1002f0c4     tbb_thread.obj
 0002:000090ec       $SG91556                   1002f0ec     tbb_thread.obj
 0002:00009114       $SG91557                   1002f114     tbb_thread.obj
 0002:00009120       $SG91558                   1002f120     tbb_thread.obj
 0002:00009148       $SG91572                   1002f148     tbb_thread.obj
 0002:000092dc       _GS_ExceptionPointers      1002f2dc     MSVCRTD:gs_report.obj
 0002:00009300       _Int32ToUInt32             1002f300     MSVCRTD:ftol3.obj
 0002:00009310       _MantissaMask              1002f310     MSVCRTD:ftol3.obj
 0002:00009318       _IntegerBit                1002f318     MSVCRTD:ftol3.obj
 0002:00009320       _SignBit64                 1002f320     MSVCRTD:ftol3.obj
 0002:00009328       _MinFP64                   1002f328     MSVCRTD:ftol3.obj
 0002:00009330       _MinInt64                  1002f330     MSVCRTD:ftol3.obj
 0002:00009338       _MaxInt64                  1002f338     MSVCRTD:ftol3.obj
 0002:00009340       _MaxUInt64                 1002f340     MSVCRTD:ftol3.obj
 0002:00009348       _MaxFP32                   1002f348     MSVCRTD:ftol3.obj
 0002:00009350       _MinFP32                   1002f350     MSVCRTD:ftol3.obj
 0002:00009358       _MinSubInexact             1002f358     MSVCRTD:ftol3.obj
 0002:00009360       _FpExcptTable              1002f360     MSVCRTD:ftol3.obj
 0002:00009370       _i1075                     1002f370     MSVCRTD:ftol3.obj
 0002:00009374       _i1087                     1002f374     MSVCRTD:ftol3.obj
 0002:00009378       _x0800                     1002f378     MSVCRTD:ftol3.obj
 0002:0000937c       _x17FF                     1002f37c     MSVCRTD:ftol3.obj
 0002:00009380       _CWMask                    1002f380     MSVCRTD:ftol3.obj
 0002:000093b4       __RTC_ErrorMessages        1002f3b4     MSVCRTD:error.obj
 0002:000093cc       __RTC_NoFalsePositives     1002f3cc     MSVCRTD:error.obj
 0002:000093e4       _stack_premsg              1002f3e4     MSVCRTD:error.obj
 0002:00009400       _stack_postmsg             1002f400     MSVCRTD:error.obj
 0002:00009414       _uninit_premsg             1002f414     MSVCRTD:error.obj
 0002:00009424       _uninit_postmsg            1002f424     MSVCRTD:error.obj
 0002:0000998c       __RTC_errlist              1002f98c     MSVCRTD:userapi.obj
 0002:00009a4c       _mspdbName                 1002fa4c     MSVCRTD:pdblkup.obj
 0002:00009a70       _msvcrdFilename            1002fa70     MSVCRTD:pdblkup.obj
 0002:00009b6c       ?dllExt@?1??GetPdbDllPathFromFilePath@@YAHPB_WPA_WI@Z@4QB_WB 1002fb6c     MSVCRTD:pdblkup.obj
 0002:00009b74       ?mspdbFilename@?1??GetPdbDllPathFromFilePath@@YAHPB_WPA_WI@Z@4QB_WB 1002fb74     MSVCRTD:pdblkup.obj
 0002:0000aa78       __RTC_InitBase.rtc$IMZ     10030a78     concurrent_queue_v2.obj
 0002:0000aa7c       __RTC_InitBase.rtc$IMZ     10030a7c     concurrent_vector_v2.obj
 0002:0000aa80       __RTC_InitBase.rtc$IMZ     10030a80     spin_rw_mutex_v2.obj
 0002:0000aa84       __RTC_InitBase.rtc$IMZ     10030a84     rml_tbb.obj
 0002:0000aa88       __RTC_InitBase.rtc$IMZ     10030a88     cache_aligned_allocator.obj
 0002:0000aa8c       __RTC_InitBase.rtc$IMZ     10030a8c     concurrent_hash_map.obj
 0002:0000aa90       __RTC_InitBase.rtc$IMZ     10030a90     concurrent_queue.obj
 0002:0000aa94       __RTC_InitBase.rtc$IMZ     10030a94     concurrent_vector.obj
 0002:0000aa98       __RTC_InitBase.rtc$IMZ     10030a98     dynamic_link.obj
 0002:0000aa9c       __RTC_InitBase.rtc$IMZ     10030a9c     itt_notify.obj
 0002:0000aaa0       __RTC_InitBase.rtc$IMZ     10030aa0     itt_notify_proxy.obj
 0002:0000aaa4       __RTC_InitBase.rtc$IMZ     10030aa4     mutex.obj
 0002:0000aaa8       __RTC_InitBase.rtc$IMZ     10030aa8     pipeline.obj
 0002:0000aaac       __RTC_InitBase.rtc$IMZ     10030aac     private_server.obj
 0002:0000aab0       __RTC_InitBase.rtc$IMZ     10030ab0     queuing_mutex.obj
 0002:0000aab4       __RTC_InitBase.rtc$IMZ     10030ab4     queuing_rw_mutex.obj
 0002:0000aab8       __RTC_InitBase.rtc$IMZ     10030ab8     recursive_mutex.obj
 0002:0000aabc       __RTC_InitBase.rtc$IMZ     10030abc     spin_mutex.obj
 0002:0000aac0       __RTC_InitBase.rtc$IMZ     10030ac0     spin_rw_mutex.obj
 0002:0000aac4       __RTC_InitBase.rtc$IMZ     10030ac4     task.obj
 0002:0000aac8       __RTC_InitBase.rtc$IMZ     10030ac8     tbb_misc.obj
 0002:0000aacc       __RTC_InitBase.rtc$IMZ     10030acc     tbb_thread.obj
 0002:0000aad8       __RTC_Shutdown.rtc$TMZ     10030ad8     concurrent_queue_v2.obj
 0002:0000aadc       __RTC_Shutdown.rtc$TMZ     10030adc     concurrent_vector_v2.obj
 0002:0000aae0       __RTC_Shutdown.rtc$TMZ     10030ae0     spin_rw_mutex_v2.obj
 0002:0000aae4       __RTC_Shutdown.rtc$TMZ     10030ae4     rml_tbb.obj
 0002:0000aae8       __RTC_Shutdown.rtc$TMZ     10030ae8     cache_aligned_allocator.obj
 0002:0000aaec       __RTC_Shutdown.rtc$TMZ     10030aec     concurrent_hash_map.obj
 0002:0000aaf0       __RTC_Shutdown.rtc$TMZ     10030af0     concurrent_queue.obj
 0002:0000aaf4       __RTC_Shutdown.rtc$TMZ     10030af4     concurrent_vector.obj
 0002:0000aaf8       __RTC_Shutdown.rtc$TMZ     10030af8     dynamic_link.obj
 0002:0000aafc       __RTC_Shutdown.rtc$TMZ     10030afc     itt_notify.obj
 0002:0000ab00       __RTC_Shutdown.rtc$TMZ     10030b00     itt_notify_proxy.obj
 0002:0000ab04       __RTC_Shutdown.rtc$TMZ     10030b04     mutex.obj
 0002:0000ab08       __RTC_Shutdown.rtc$TMZ     10030b08     pipeline.obj
 0002:0000ab0c       __RTC_Shutdown.rtc$TMZ     10030b0c     private_server.obj
 0002:0000ab10       __RTC_Shutdown.rtc$TMZ     10030b10     queuing_mutex.obj
 0002:0000ab14       __RTC_Shutdown.rtc$TMZ     10030b14     queuing_rw_mutex.obj
 0002:0000ab18       __RTC_Shutdown.rtc$TMZ     10030b18     recursive_mutex.obj
 0002:0000ab1c       __RTC_Shutdown.rtc$TMZ     10030b1c     spin_mutex.obj
 0002:0000ab20       __RTC_Shutdown.rtc$TMZ     10030b20     spin_rw_mutex.obj
 0002:0000ab24       __RTC_Shutdown.rtc$TMZ     10030b24     task.obj
 0002:0000ab28       __RTC_Shutdown.rtc$TMZ     10030b28     tbb_misc.obj
 0002:0000ab2c       __RTC_Shutdown.rtc$TMZ     10030b2c     tbb_thread.obj
 0002:0000ab38       __unwindtable$?pop@micro_queue@internal@tbb@@QAE_NPAXIAAVconcurrent_queue_base@23@@Z 10030b38     concurrent_queue_v2.obj
 0002:0000ab40       __unwindtable$??0concurrent_queue_iterator_base@internal@tbb@@IAE@ABVconcurrent_queue_base@12@@Z 10030b40     concurrent_queue_v2.obj
 0002:0000ab48       __unwindtable$?push@micro_queue@internal@tbb@@QAEXPBXIAAVconcurrent_queue_base@23@@Z 10030b48     concurrent_queue_v2.obj
 0002:0000ab58       __ehfuncinfo$?pop@micro_queue@internal@tbb@@QAE_NPAXIAAVconcurrent_queue_base@23@@Z 10030b58     concurrent_queue_v2.obj
 0002:0000ab7c       __ehfuncinfo$?push@micro_queue@internal@tbb@@QAEXPBXIAAVconcurrent_queue_base@23@@Z 10030b7c     concurrent_queue_v2.obj
 0002:0000aba0       __ehfuncinfo$??0concurrent_queue_iterator_base@internal@tbb@@IAE@ABVconcurrent_queue_base@12@@Z 10030ba0     concurrent_queue_v2.obj
 0002:0000abc4       __unwindtable$??1pop_finalizer@micro_queue@internal@tbb@@QAE@XZ 10030bc4     concurrent_queue_v2.obj
 0002:0000abcc       __ehfuncinfo$??1pop_finalizer@micro_queue@internal@tbb@@QAE@XZ 10030bcc     concurrent_queue_v2.obj
 0002:0000abf0       __unwindtable$??0?$_String_alloc@$0A@U?$_String_base_types@DV?$allocator@D@std@@@std@@@std@@QAE@ABV?$allocator@D@1@@Z 10030bf0     concurrent_vector_v2.obj
 0002:0000abf8       __ehfuncinfo$??0?$_String_alloc@$0A@U?$_String_base_types@DV?$allocator@D@std@@@std@@@std@@QAE@ABV?$allocator@D@1@@Z 10030bf8     concurrent_vector_v2.obj
 0002:0000ac1c       __unwindtable$??0?$basic_string@DU?$char_traits@D@std@@V?$allocator@D@2@@std@@QAE@PBD@Z 10030c1c     concurrent_vector_v2.obj
 0002:0000ac24       __ehfuncinfo$??0?$basic_string@DU?$char_traits@D@std@@V?$allocator@D@2@@std@@QAE@PBD@Z 10030c24     concurrent_vector_v2.obj
 0002:0000ac48       __catchsym$?_Copy@?$basic_string@DU?$char_traits@D@std@@V?$allocator@D@2@@std@@QAEXII@Z$5 10030c48     concurrent_vector_v2.obj
 0002:0000ac58       __catchsym$?_Copy@?$basic_string@DU?$char_traits@D@std@@V?$allocator@D@2@@std@@QAEXII@Z$4 10030c58     concurrent_vector_v2.obj
 0002:0000ac68       __unwindtable$?_Copy@?$basic_string@DU?$char_traits@D@std@@V?$allocator@D@2@@std@@QAEXII@Z 10030c68     concurrent_vector_v2.obj
 0002:0000ac88       __ehfuncinfo$?_Copy@?$basic_string@DU?$char_traits@D@std@@V?$allocator@D@2@@std@@QAEXII@Z 10030c88     concurrent_vector_v2.obj
 0002:0000acac       __tryblocktable$?_Copy@?$basic_string@DU?$char_traits@D@std@@V?$allocator@D@2@@std@@QAEXII@Z 10030cac     concurrent_vector_v2.obj
 0002:0000acd4       __unwindtable$??$construct@U_Container_proxy@std@@U12@@?$allocator@U_Container_proxy@std@@@std@@QAEXPAU_Container_proxy@1@$$QAU21@@Z 10030cd4     concurrent_vector_v2.obj
 0002:0000acdc       __ehfuncinfo$??$construct@U_Container_proxy@std@@U12@@?$allocator@U_Container_proxy@std@@@std@@QAEXPAU_Container_proxy@1@$$QAU21@@Z 10030cdc     concurrent_vector_v2.obj
 0002:0000ad00       __unwindtable$??$construct@PADAAPAD@?$allocator@D@std@@QAEXPAPADAAPAD@Z 10030d00     concurrent_vector_v2.obj
 0002:0000ad08       __ehfuncinfo$??$construct@PADAAPAD@?$allocator@D@std@@QAEXPAPADAAPAD@Z 10030d08     concurrent_vector_v2.obj
 0002:0000add8       __unwindtable$?make_invalid@micro_queue@internal@tbb@@QAEXI@Z 10030dd8     concurrent_queue.obj
 0002:0000ade0       __unwindtable$?pop@micro_queue@internal@tbb@@QAE_NPAXIAAVconcurrent_queue_base_v3@23@@Z 10030de0     concurrent_queue.obj
 0002:0000ade8       __unwindtable$??0concurrent_queue_iterator_base_v3@internal@tbb@@IAE@ABVconcurrent_queue_base_v3@12@@Z 10030de8     concurrent_queue.obj
 0002:0000adf0       __catchsym$?assign@micro_queue@internal@tbb@@QAEAAU123@ABU123@AAVconcurrent_queue_base_v3@23@@Z$2 10030df0     concurrent_queue.obj
 0002:0000ae00       __unwindtable$?assign@micro_queue@internal@tbb@@QAEAAU123@ABU123@AAVconcurrent_queue_base_v3@23@@Z 10030e00     concurrent_queue.obj
 0002:0000ae10       __catchsym$?push@micro_queue@internal@tbb@@QAEXPBXIAAVconcurrent_queue_base_v3@23@@Z$6 10030e10     concurrent_queue.obj
 0002:0000ae20       __catchsym$?push@micro_queue@internal@tbb@@QAEXPBXIAAVconcurrent_queue_base_v3@23@@Z$5 10030e20     concurrent_queue.obj
 0002:0000ae30       __tryblocktable$?assign@micro_queue@internal@tbb@@QAEAAU123@ABU123@AAVconcurrent_queue_base_v3@23@@Z 10030e30     concurrent_queue.obj
 0002:0000ae44       __ehfuncinfo$?make_invalid@micro_queue@internal@tbb@@QAEXI@Z 10030e44     concurrent_queue.obj
 0002:0000ae68       __ehfuncinfo$?assign@micro_queue@internal@tbb@@QAEAAU123@ABU123@AAVconcurrent_queue_base_v3@23@@Z 10030e68     concurrent_queue.obj
 0002:0000ae8c       __ehfuncinfo$?pop@micro_queue@internal@tbb@@QAE_NPAXIAAVconcurrent_queue_base_v3@23@@Z 10030e8c     concurrent_queue.obj
 0002:0000aeb0       __ehfuncinfo$?push@micro_queue@internal@tbb@@QAEXPBXIAAVconcurrent_queue_base_v3@23@@Z 10030eb0     concurrent_queue.obj
 0002:0000aed4       __ehfuncinfo$??0concurrent_queue_iterator_base_v3@internal@tbb@@IAE@ABVconcurrent_queue_base_v3@12@@Z 10030ed4     concurrent_queue.obj
 0002:0000aef8       __tryblocktable$?push@micro_queue@internal@tbb@@QAEXPBXIAAVconcurrent_queue_base_v3@23@@Z 10030ef8     concurrent_queue.obj
 0002:0000af20       __unwindtable$?push@micro_queue@internal@tbb@@QAEXPBXIAAVconcurrent_queue_base_v3@23@@Z 10030f20     concurrent_queue.obj
 0002:0000af48       __unwindtable$??1micro_queue_pop_finalizer@internal@tbb@@QAE@XZ 10030f48     concurrent_queue.obj
 0002:0000af50       __ehfuncinfo$??1micro_queue_pop_finalizer@internal@tbb@@QAE@XZ 10030f50     concurrent_queue.obj
 0002:0000afb0       __unwindtable$?internal_clear@concurrent_vector_base_v3@internal@tbb@@IAEIP6AXPAXI@Z@Z 10030fb0     concurrent_vector.obj
 0002:0000afb8       __unwindtable$?internal_grow@concurrent_vector_base_v3@internal@tbb@@IAEXIIIP6AXPAXPBXI@Z1@Z 10030fb8     concurrent_vector.obj
 0002:0000afc0       __unwindtable$??1concurrent_vector_base_v3@internal@tbb@@IAE@XZ 10030fc0     concurrent_vector.obj
 0002:0000afc8       __unwindtable$?internal_resize@concurrent_vector_base_v3@internal@tbb@@IAEXIIIPBXP6AXPAXI@ZP6AX10I@Z@Z 10030fc8     concurrent_vector.obj
 0002:0000afd8       __catchsym$?internal_compact@concurrent_vector_base_v3@internal@tbb@@IAEPAXIPAXP6AX0I@ZP6AX0PBXI@Z@Z$3 10030fd8     concurrent_vector.obj
 0002:0000afe8       __catchsym$?internal_reserve@concurrent_vector_base_v3@internal@tbb@@IAEXIII@Z$2 10030fe8     concurrent_vector.obj
 0002:0000aff8       __unwindtable$?internal_reserve@concurrent_vector_base_v3@internal@tbb@@IAEXIII@Z 10030ff8     concurrent_vector.obj
 0002:0000b008       __tryblocktable$?internal_compact@concurrent_vector_base_v3@internal@tbb@@IAEPAXIPAXP6AX0I@ZP6AX0PBXI@Z@Z 10031008     concurrent_vector.obj
 0002:0000b01c       __tryblocktable$?internal_reserve@concurrent_vector_base_v3@internal@tbb@@IAEXIII@Z 1003101c     concurrent_vector.obj
 0002:0000b030       __unwindtable$?internal_compact@concurrent_vector_base_v3@internal@tbb@@IAEPAXIPAXP6AX0I@ZP6AX0PBXI@Z@Z 10031030     concurrent_vector.obj
 0002:0000b048       __ehfuncinfo$?internal_resize@concurrent_vector_base_v3@internal@tbb@@IAEXIIIPBXP6AXPAXI@ZP6AX10I@Z@Z 10031048     concurrent_vector.obj
 0002:0000b06c       __ehfuncinfo$?internal_compact@concurrent_vector_base_v3@internal@tbb@@IAEPAXIPAXP6AX0I@ZP6AX0PBXI@Z@Z 1003106c     concurrent_vector.obj
 0002:0000b090       __ehfuncinfo$?internal_clear@concurrent_vector_base_v3@internal@tbb@@IAEIP6AXPAXI@Z@Z 10031090     concurrent_vector.obj
 0002:0000b0b4       __ehfuncinfo$?internal_grow@concurrent_vector_base_v3@internal@tbb@@IAEXIIIP6AXPAXPBXI@Z1@Z 100310b4     concurrent_vector.obj
 0002:0000b0d8       __ehfuncinfo$?internal_reserve@concurrent_vector_base_v3@internal@tbb@@IAEXIII@Z 100310d8     concurrent_vector.obj
 0002:0000b0fc       __ehfuncinfo$??1concurrent_vector_base_v3@internal@tbb@@IAE@XZ 100310fc     concurrent_vector.obj
 0002:0000b120       __catchsym$?enable_segment@helper@concurrent_vector_base_v3@internal@tbb@@SAIAAV234@II@Z$5 10031120     concurrent_vector.obj
 0002:0000b130       __catchsym$?enable_segment@helper@concurrent_vector_base_v3@internal@tbb@@SAIAAV234@II@Z$4 10031130     concurrent_vector.obj
 0002:0000b140       __unwindtable$?enable_segment@helper@concurrent_vector_base_v3@internal@tbb@@SAIAAV234@II@Z 10031140     concurrent_vector.obj
 0002:0000b160       __ehfuncinfo$?enable_segment@helper@concurrent_vector_base_v3@internal@tbb@@SAIAAV234@II@Z 10031160     concurrent_vector.obj
 0002:0000b184       __tryblocktable$?enable_segment@helper@concurrent_vector_base_v3@internal@tbb@@SAIAAV234@II@Z 10031184     concurrent_vector.obj
 0002:0000b240       __unwindtable$?run@pipeline@tbb@@QAEXI@Z 10031240     pipeline.obj
 0002:0000b248       __unwindtable$?execute@stage_task@internal@tbb@@UAEPAVtask@3@XZ 10031248     pipeline.obj
 0002:0000b258       __unwindtable$?run@pipeline@tbb@@QAEXIAAVtask_group_context@2@@Z 10031258     pipeline.obj
 0002:0000b268       __unwindtable$?add_filter@pipeline@tbb@@QAEXAAVfilter@2@@Z 10031268     pipeline.obj
 0002:0000b280       __ehfuncinfo$?execute@stage_task@internal@tbb@@UAEPAVtask@3@XZ 10031280     pipeline.obj
 0002:0000b2a4       __ehfuncinfo$?run@pipeline@tbb@@QAEXIAAVtask_group_context@2@@Z 100312a4     pipeline.obj
 0002:0000b2c8       __ehfuncinfo$?run@pipeline@tbb@@QAEXI@Z 100312c8     pipeline.obj
 0002:0000b2ec       __ehfuncinfo$?add_filter@pipeline@tbb@@QAEXAAVfilter@2@@Z 100312ec     pipeline.obj
 0002:0000b310       __unwindtable$?return_item@input_buffer@internal@tbb@@QAE_NAAUtask_info@23@_N@Z 10031310     pipeline.obj
 0002:0000b318       __ehfuncinfo$?return_item@input_buffer@internal@tbb@@QAE_NAAUtask_info@23@_N@Z 10031318     pipeline.obj
 0002:0000b33c       __unwindtable$?put_item@input_buffer@internal@tbb@@QAEXAAUtask_info@23@@Z 1003133c     pipeline.obj
 0002:0000b344       __ehfuncinfo$?put_item@input_buffer@internal@tbb@@QAEXAAUtask_info@23@@Z 10031344     pipeline.obj
 0002:0000b368       __unwindtable$??0stage_task@internal@tbb@@QAE@AAVpipeline@2@@Z 10031368     pipeline.obj
 0002:0000b370       __ehfuncinfo$??0stage_task@internal@tbb@@QAE@AAVpipeline@2@@Z 10031370     pipeline.obj
 0002:0000b394       __unwindtable$??1stage_task@internal@tbb@@UAE@XZ 10031394     pipeline.obj
 0002:0000b39c       __ehfuncinfo$??1stage_task@internal@tbb@@UAE@XZ 1003139c     pipeline.obj
 0002:0000b3c0       __unwindtable$?spawn_stage_task@stage_task@internal@tbb@@QAEXABUtask_info@23@@Z 100313c0     pipeline.obj
 0002:0000b3c8       __ehfuncinfo$?spawn_stage_task@stage_task@internal@tbb@@QAEXABUtask_info@23@@Z 100313c8     pipeline.obj
 0002:0000b3ec       __unwindtable$??$note_done@Vstage_task@internal@tbb@@@input_buffer@internal@tbb@@QAEXKAAVstage_task@12@@Z 100313ec     pipeline.obj
 0002:0000b3f4       __ehfuncinfo$??$note_done@Vstage_task@internal@tbb@@@input_buffer@internal@tbb@@QAEXKAAVstage_task@12@@Z 100313f4     pipeline.obj
 0002:0000b418       __unwindtable$??$put_token@Vstage_task@internal@tbb@@@input_buffer@internal@tbb@@QAE_NAAVstage_task@12@@Z 10031418     pipeline.obj
 0002:0000b420       __ehfuncinfo$??$put_token@Vstage_task@internal@tbb@@@input_buffer@internal@tbb@@QAE_NAAVstage_task@12@@Z 10031420     pipeline.obj
 0002:0000b444       __unwindtable$?execute@pipeline_root_task@internal@tbb@@EAEPAVtask@3@XZ 10031444     pipeline.obj
 0002:0000b454       __ehfuncinfo$?execute@pipeline_root_task@internal@tbb@@EAEPAVtask@3@XZ 10031454     pipeline.obj
 0002:0000b478       __unwindtable$??0pipeline_root_task@internal@tbb@@QAE@AAVpipeline@2@@Z 10031478     pipeline.obj
 0002:0000b480       __ehfuncinfo$??0pipeline_root_task@internal@tbb@@QAE@AAVpipeline@2@@Z 10031480     pipeline.obj
 0002:0000b4a4       __unwindtable$??0private_worker@rml@internal@tbb@@IAE@AAVprivate_server@123@AAVtbb_client@123@I@Z 100314a4     private_server.obj
 0002:0000b4ac       __ehfuncinfo$??0private_worker@rml@internal@tbb@@IAE@AAVprivate_server@123@AAVtbb_client@123@I@Z 100314ac     private_server.obj
 0002:0000b4d0       __unwindtable$?try_insert_in_asleep_list@private_server@rml@internal@tbb@@AAE_NAAVprivate_worker@234@@Z 100314d0     private_server.obj
 0002:0000b4d8       __ehfuncinfo$?try_insert_in_asleep_list@private_server@rml@internal@tbb@@AAE_NAAVprivate_worker@234@@Z 100314d8     private_server.obj
 0002:0000b4fc       __unwindtable$?make_private_server@rml@internal@tbb@@YAPAVtbb_server@123@AAVtbb_client@123@@Z 100314fc     private_server.obj
 0002:0000b504       __unwindtable$??0private_server@rml@internal@tbb@@QAE@AAVtbb_client@123@@Z 10031504     private_server.obj
 0002:0000b50c       __unwindtable$?wake_some@private_server@rml@internal@tbb@@AAEXH@Z 1003150c     private_server.obj
 0002:0000b514       __ehfuncinfo$?make_private_server@rml@internal@tbb@@YAPAVtbb_server@123@AAVtbb_client@123@@Z 10031514     private_server.obj
 0002:0000b538       __ehfuncinfo$??0private_server@rml@internal@tbb@@QAE@AAVtbb_client@123@@Z 10031538     private_server.obj
 0002:0000b55c       __ehfuncinfo$?wake_some@private_server@rml@internal@tbb@@AAEXH@Z 1003155c     private_server.obj
 0002:0000b580       __unwindtable$?_Current_exception@exception_ptr@std@@SA?AV12@XZ 10031580     task.obj
 0002:0000b588       __ehfuncinfo$?_Current_exception@exception_ptr@std@@SA?AV12@XZ 10031588     task.obj
 0002:0000b5ac       __unwindtable$?_Copy_exception@exception_ptr@std@@SA?AV12@PAXPBX@Z 100315ac     task.obj
 0002:0000b5b4       __ehfuncinfo$?_Copy_exception@exception_ptr@std@@SA?AV12@PAXPBX@Z 100315b4     task.obj
 0002:0000b5d8       __unwindtable$?rethrow_exception@std@@YAXVexception_ptr@1@@Z 100315d8     task.obj
 0002:0000b5e0       __ehfuncinfo$?rethrow_exception@std@@YAXVexception_ptr@1@@Z 100315e0     task.obj
 0002:0000b604       __unwindtable$?propagate_cancellation@GenericScheduler@internal@tbb@@QAEXXZ 10031604     task.obj
 0002:0000b60c       __unwindtable$?propagate_cancellation@GenericScheduler@internal@tbb@@QAEXPAVtask_group_context@3@@Z 1003160c     task.obj
 0002:0000b614       __unwindtable$?local_spawn_root_and_wait@GenericScheduler@internal@tbb@@QAEXAAVtask@3@AAPAV43@@Z 10031614     task.obj
 0002:0000b61c       __unwindtable$?local_spawn@GenericScheduler@internal@tbb@@QAEXAAVtask@3@AAPAV43@@Z 1003161c     task.obj
 0002:0000b624       __unwindtable$??0GenericScheduler@internal@tbb@@IAE@PAVArena@12@@Z 10031624     task.obj
 0002:0000b62c       __unwindtable$?allocate_arena@Arena@internal@tbb@@CAPAV123@III@Z 1003162c     task.obj
 0002:0000b634       __unwindtable$?remove_ref_slow@observer_proxy@internal@tbb@@AAEXXZ 10031634     task.obj
 0002:0000b63c       __unwindtable$?observe@task_scheduler_observer_v3@internal@tbb@@QAEX_N@Z 1003163c     task.obj
 0002:0000b644       __unwindtable$?allocate@tbb_exception_ptr@internal@tbb@@SAPAV123@ABVtbb_exception@3@@Z 10031644     task.obj
 0002:0000b64c       __unwindtable$?allocate@tbb_exception_ptr@internal@tbb@@SAPAV123@XZ 1003164c     task.obj
 0002:0000b654       __unwindtable$?allocate@captured_exception@tbb@@SAPAV12@PBD0@Z 10031654     task.obj
 0002:0000b65c       __unwindtable$?create_master@GenericScheduler@internal@tbb@@CAPAV123@PAVArena@23@@Z 1003165c     task.obj
 0002:0000b66c       __catchsym$?process_list@observer_proxy@internal@tbb@@SAPAV123@PAV123@_N1@Z$5 1003166c     task.obj
 0002:0000b67c       __unwindtable$?register_pending_exception@task_group_context@tbb@@QAEXXZ 1003167c     task.obj
 0002:0000b68c       __tryblocktable$?process_list@observer_proxy@internal@tbb@@SAPAV123@PAV123@_N1@Z 1003168c     task.obj
 0002:0000b6a0       __tryblocktable$?register_pending_exception@task_group_context@tbb@@QAEXXZ 100316a0     task.obj
 0002:0000b6b4       __unwindtable$?process_list@observer_proxy@internal@tbb@@SAPAV123@PAV123@_N1@Z 100316b4     task.obj
 0002:0000b6cc       __ehfuncinfo$?propagate_cancellation@GenericScheduler@internal@tbb@@QAEXXZ 100316cc     task.obj
 0002:0000b6f0       __ehfuncinfo$?propagate_cancellation@GenericScheduler@internal@tbb@@QAEXPAVtask_group_context@3@@Z 100316f0     task.obj
 0002:0000b714       __ehfuncinfo$?local_spawn_root_and_wait@GenericScheduler@internal@tbb@@QAEXAAVtask@3@AAPAV43@@Z 10031714     task.obj
 0002:0000b738       __ehfuncinfo$?local_spawn@GenericScheduler@internal@tbb@@QAEXAAVtask@3@AAPAV43@@Z 10031738     task.obj
 0002:0000b75c       __ehfuncinfo$??0GenericScheduler@internal@tbb@@IAE@PAVArena@12@@Z 1003175c     task.obj
 0002:0000b780       __ehfuncinfo$?create_master@GenericScheduler@internal@tbb@@CAPAV123@PAVArena@23@@Z 10031780     task.obj
 0002:0000b7a4       __ehfuncinfo$?allocate_arena@Arena@internal@tbb@@CAPAV123@III@Z 100317a4     task.obj
 0002:0000b7c8       __ehfuncinfo$?process_list@observer_proxy@internal@tbb@@SAPAV123@PAV123@_N1@Z 100317c8     task.obj
 0002:0000b7ec       __ehfuncinfo$?remove_ref_slow@observer_proxy@internal@tbb@@AAEXXZ 100317ec     task.obj
 0002:0000b810       __ehfuncinfo$?observe@task_scheduler_observer_v3@internal@tbb@@QAEX_N@Z 10031810     task.obj
 0002:0000b834       __ehfuncinfo$?allocate@tbb_exception_ptr@internal@tbb@@SAPAV123@ABVtbb_exception@3@@Z 10031834     task.obj
 0002:0000b858       __ehfuncinfo$?allocate@tbb_exception_ptr@internal@tbb@@SAPAV123@XZ 10031858     task.obj
 0002:0000b87c       __ehfuncinfo$?allocate@captured_exception@tbb@@SAPAV12@PBD0@Z 1003187c     task.obj
 0002:0000b8a0       __ehfuncinfo$?register_pending_exception@task_group_context@tbb@@QAEXXZ 100318a0     task.obj
 0002:0000b8c4       __catchsym$?register_pending_exception@task_group_context@tbb@@QAEXXZ$4 100318c4     task.obj
 0002:0000b8f4       __unwindtable$??$make_exception_ptr@Vcaptured_exception@tbb@@@std@@YA?AVexception_ptr@0@Vcaptured_exception@tbb@@@Z 100318f4     task.obj
 0002:0000b8fc       __ehfuncinfo$??$make_exception_ptr@Vcaptured_exception@tbb@@@std@@YA?AVexception_ptr@0@Vcaptured_exception@tbb@@@Z 100318fc     task.obj
 0002:0000b920       __unwindtable$?obtain_arena@Governor@internal@tbb@@CAPAVArena@23@HI@Z 10031920     task.obj
 0002:0000b928       __ehfuncinfo$?obtain_arena@Governor@internal@tbb@@CAPAVArena@23@HI@Z 10031928     task.obj
 0002:0000b94c       __unwindtable$?finish_with_arena@Governor@internal@tbb@@SAXXZ 1003194c     task.obj
 0002:0000b954       __ehfuncinfo$?finish_with_arena@Governor@internal@tbb@@SAXXZ 10031954     task.obj
 0002:0000b978       __unwindtable$??0auto_empty_task@internal@tbb@@QAE@PAVGenericScheduler@12@PAVtask_group_context@2@@Z 10031978     task.obj
 0002:0000b980       __ehfuncinfo$??0auto_empty_task@internal@tbb@@QAE@PAVGenericScheduler@12@PAVtask_group_context@2@@Z 10031980     task.obj
 0002:0000b9a4       __unwindtable$?local_wait_for_all@?$CustomScheduler@UDefaultSchedulerTraits@internal@tbb@@@internal@tbb@@AAEXAAVtask@3@PAV43@@Z 100319a4     task.obj
 0002:0000b9b4       __tryblocktable$?local_wait_for_all@?$CustomScheduler@UDefaultSchedulerTraits@internal@tbb@@@internal@tbb@@AAEXAAVtask@3@PAV43@@Z 100319b4     task.obj
 0002:0000b9c8       __ehfuncinfo$?local_wait_for_all@?$CustomScheduler@UDefaultSchedulerTraits@internal@tbb@@@internal@tbb@@AAEXAAVtask@3@PAV43@@Z 100319c8     task.obj
 0002:0000b9ec       __catchsym$?local_wait_for_all@?$CustomScheduler@UDefaultSchedulerTraits@internal@tbb@@@internal@tbb@@AAEXAAVtask@3@PAV43@@Z$8 100319ec     task.obj
 0002:0000ba1c       __unwindtable$?allocate_scheduler@?$CustomScheduler@UDefaultSchedulerTraits@internal@tbb@@@internal@tbb@@SAPAVGenericScheduler@23@PAVArena@23@@Z 10031a1c     task.obj
 0002:0000ba24       __ehfuncinfo$?allocate_scheduler@?$CustomScheduler@UDefaultSchedulerTraits@internal@tbb@@@internal@tbb@@SAPAVGenericScheduler@23@PAVArena@23@@Z 10031a24     task.obj
 0002:0000ba48       __unwindtable$?local_wait_for_all@?$CustomScheduler@UIntelSchedulerTraits@internal@tbb@@@internal@tbb@@AAEXAAVtask@3@PAV43@@Z 10031a48     task.obj
 0002:0000ba58       __tryblocktable$?local_wait_for_all@?$CustomScheduler@UIntelSchedulerTraits@internal@tbb@@@internal@tbb@@AAEXAAVtask@3@PAV43@@Z 10031a58     task.obj
 0002:0000ba6c       __ehfuncinfo$?local_wait_for_all@?$CustomScheduler@UIntelSchedulerTraits@internal@tbb@@@internal@tbb@@AAEXAAVtask@3@PAV43@@Z 10031a6c     task.obj
 0002:0000ba90       __catchsym$?local_wait_for_all@?$CustomScheduler@UIntelSchedulerTraits@internal@tbb@@@internal@tbb@@AAEXAAVtask@3@PAV43@@Z$8 10031a90     task.obj
 0002:0000bac0       __unwindtable$?allocate_scheduler@?$CustomScheduler@UIntelSchedulerTraits@internal@tbb@@@internal@tbb@@SAPAVGenericScheduler@23@PAVArena@23@@Z 10031ac0     task.obj
 0002:0000bac8       __ehfuncinfo$?allocate_scheduler@?$CustomScheduler@UIntelSchedulerTraits@internal@tbb@@@internal@tbb@@SAPAVGenericScheduler@23@PAVArena@23@@Z 10031ac8     task.obj
 0002:0000baec       __unwindtable$??$AllocateExceptionContainer@Vexception_ptr@std@@@internal@tbb@@YAPAVtbb_exception_ptr@01@ABVexception_ptr@std@@@Z 10031aec     task.obj
 0002:0000baf4       __ehfuncinfo$??$AllocateExceptionContainer@Vexception_ptr@std@@@internal@tbb@@YAPAVtbb_exception_ptr@01@ABVexception_ptr@std@@@Z 10031af4     task.obj
 0002:0000bb18       __unwindtable$??$AllocateExceptionContainer@Vcaptured_exception@tbb@@@internal@tbb@@YAPAVtbb_exception_ptr@01@ABVcaptured_exception@1@@Z 10031b18     task.obj
 0002:0000bb20       __ehfuncinfo$??$AllocateExceptionContainer@Vcaptured_exception@tbb@@@internal@tbb@@YAPAVtbb_exception_ptr@01@ABVcaptured_exception@1@@Z 10031b20     task.obj
 0002:0000bbb8       __unwindtable$?handle_win_error@internal@tbb@@YAXH@Z 10031bb8     tbb_thread.obj
 0002:0000bbc0       __ehfuncinfo$?handle_win_error@internal@tbb@@YAXH@Z 10031bc0     tbb_thread.obj
 0002:0000bbe8       __sehtable$__onexit        10031be8     MSVCRTD:atonexit.obj
 0002:0000bc08       __sehtable$??_M@YGXPAXIHP6EX0@Z@Z 10031c08     MSVCRTD:ehvecdtr.obj
 0002:0000bc28       __sehtable$?__ArrayUnwind@@YGXPAXIHP6EX0@Z@Z 10031c28     MSVCRTD:ehvecdtr.obj
 0002:0000bc48       __sehtable$___DllMainCRTStartup 10031c48     MSVCRTD:crtdll.obj
 0002:0000bc70       __sehtable$?DebuggerProbe@@YAHK@Z 10031c70     MSVCRTD:error.obj
 0002:0000bc90       __sehtable$?DebuggerRuntime@@YAHKHPAXPB_W@Z 10031c90     MSVCRTD:error.obj
 0002:0000bcb0       __sehtable$__IsNonwritableInCurrentImage 10031cb0     MSVCRTD:pesect.obj
 0002:0000bcd0       .edata                     10031cd0     tbb_debug.exp
 0002:0000bcf8       rgpv                       10031cf8     tbb_debug.exp
 0002:0000bfac       rgszName                   10031fac     tbb_debug.exp
 0002:0000c260       rgwOrd                     10032260     tbb_debug.exp
 0002:0000c3ba       szName                     100323ba     tbb_debug.exp
 0002:0000c3c8       $N00001                    100323c8     tbb_debug.exp
 0002:0000c3f7       $N00002                    100323f7     tbb_debug.exp
 0002:0000c429       $N00003                    10032429     tbb_debug.exp
 0002:0000c47c       $N00004                    1003247c     tbb_debug.exp
 0002:0000c4d5       $N00005                    100324d5     tbb_debug.exp
 0002:0000c4ed       $N00006                    100324ed     tbb_debug.exp
 0002:0000c50f       $N00007                    1003250f     tbb_debug.exp
 0002:0000c53d       $N00008                    1003253d     tbb_debug.exp
 0002:0000c56e       $N00009                    1003256e     tbb_debug.exp
 0002:0000c5a5       $N00010                    100325a5     tbb_debug.exp
 0002:0000c5df       $N00011                    100325df     tbb_debug.exp
 0002:0000c611       $N00012                    10032611     tbb_debug.exp
 0002:0000c627       $N00013                    10032627     tbb_debug.exp
 0002:0000c63f       $N00014                    1003263f     tbb_debug.exp
 0002:0000c661       $N00015                    10032661     tbb_debug.exp
 0002:0000c677       $N00016                    10032677     tbb_debug.exp
 0002:0000c6a0       $N00017                    100326a0     tbb_debug.exp
 0002:0000c6c1       $N00018                    100326c1     tbb_debug.exp
 0002:0000c6e6       $N00019                    100326e6     tbb_debug.exp
 0002:0000c71b       $N00020                    1003271b     tbb_debug.exp
 0002:0000c755       $N00021                    10032755     tbb_debug.exp
 0002:0000c782       $N00022                    10032782     tbb_debug.exp
 0002:0000c7bf       $N00023                    100327bf     tbb_debug.exp
 0002:0000c7ff       $N00024                    100327ff     tbb_debug.exp
 0002:0000c84b       $N00025                    1003284b     tbb_debug.exp
 0002:0000c889       $N00026                    10032889     tbb_debug.exp
 0002:0000c8ce       $N00027                    100328ce     tbb_debug.exp
 0002:0000c90a       $N00028                    1003290a     tbb_debug.exp
 0002:0000c954       $N00029                    10032954     tbb_debug.exp
 0002:0000c980       $N00030                    10032980     tbb_debug.exp
 0002:0000c9b0       $N00031                    100329b0     tbb_debug.exp
 0002:0000c9d4       $N00032                    100329d4     tbb_debug.exp
 0002:0000ca11       $N00033                    10032a11     tbb_debug.exp
 0002:0000ca54       $N00034                    10032a54     tbb_debug.exp
 0002:0000ca9a       $N00035                    10032a9a     tbb_debug.exp
 0002:0000cad2       $N00036                    10032ad2     tbb_debug.exp
 0002:0000caf8       $N00037                    10032af8     tbb_debug.exp
 0002:0000cb14       $N00038                    10032b14     tbb_debug.exp
 0002:0000cb46       $N00039                    10032b46     tbb_debug.exp
 0002:0000cb7a       $N00040                    10032b7a     tbb_debug.exp
 0002:0000cba2       $N00041                    10032ba2     tbb_debug.exp
 0002:0000cbc2       $N00042                    10032bc2     tbb_debug.exp
 0002:0000cbed       $N00043                    10032bed     tbb_debug.exp
 0002:0000cc2c       $N00044                    10032c2c     tbb_debug.exp
 0002:0000cc74       $N00045                    10032c74     tbb_debug.exp
 0002:0000ccae       $N00046                    10032cae     tbb_debug.exp
 0002:0000ccef       $N00047                    10032cef     tbb_debug.exp
 0002:0000cd27       $N00048                    10032d27     tbb_debug.exp
 0002:0000cd6d       $N00049                    10032d6d     tbb_debug.exp
 0002:0000cd95       $N00050                    10032d95     tbb_debug.exp
 0002:0000cdcf       $N00051                    10032dcf     tbb_debug.exp
 0002:0000cdf6       $N00052                    10032df6     tbb_debug.exp
 0002:0000ce2e       $N00053                    10032e2e     tbb_debug.exp
 0002:0000ce53       $N00054                    10032e53     tbb_debug.exp
 0002:0000ce80       $N00055                    10032e80     tbb_debug.exp
 0002:0000ceae       $N00056                    10032eae     tbb_debug.exp
 0002:0000cedb       $N00057                    10032edb     tbb_debug.exp
 0002:0000cf11       $N00058                    10032f11     tbb_debug.exp
 0002:0000cf51       $N00059                    10032f51     tbb_debug.exp
 0002:0000cf8c       $N00060                    10032f8c     tbb_debug.exp
 0002:0000cfc4       $N00061                    10032fc4     tbb_debug.exp
 0002:0000cffa       $N00062                    10032ffa     tbb_debug.exp
 0002:0000d033       $N00063                    10033033     tbb_debug.exp
 0002:0000d06a       $N00064                    1003306a     tbb_debug.exp
 0002:0000d0c5       $N00065                    100330c5     tbb_debug.exp
 0002:0000d123       $N00066                    10033123     tbb_debug.exp
 0002:0000d162       $N00067                    10033162     tbb_debug.exp
 0002:0000d1a4       $N00068                    100331a4     tbb_debug.exp
 0002:0000d1ec       $N00069                    100331ec     tbb_debug.exp
 0002:0000d235       $N00070                    10033235     tbb_debug.exp
 0002:0000d28f       $N00071                    1003328f     tbb_debug.exp
 0002:0000d2b5       $N00072                    100332b5     tbb_debug.exp
 0002:0000d2e3       $N00073                    100332e3     tbb_debug.exp
 0002:0000d314       $N00074                    10033314     tbb_debug.exp
 0002:0000d344       $N00075                    10033344     tbb_debug.exp
 0002:0000d36f       $N00076                    1003336f     tbb_debug.exp
 0002:0000d3a0       $N00077                    100333a0     tbb_debug.exp
 0002:0000d3f0       $N00078                    100333f0     tbb_debug.exp
 0002:0000d443       $N00079                    10033443     tbb_debug.exp
 0002:0000d472       $N00080                    10033472     tbb_debug.exp
 0002:0000d496       $N00081                    10033496     tbb_debug.exp
 0002:0000d4c4       $N00082                    100334c4     tbb_debug.exp
 0002:0000d4f7       $N00083                    100334f7     tbb_debug.exp
 0002:0000d528       $N00084                    10033528     tbb_debug.exp
 0002:0000d567       $N00085                    10033567     tbb_debug.exp
 0002:0000d5ac       $N00086                    100335ac     tbb_debug.exp
 0002:0000d5f6       $N00087                    100335f6     tbb_debug.exp
 0002:0000d647       $N00088                    10033647     tbb_debug.exp
 0002:0000d68c       $N00089                    1003368c     tbb_debug.exp
 0002:0000d6df       $N00090                    100336df     tbb_debug.exp
 0002:0000d739       $N00091                    10033739     tbb_debug.exp
 0002:0000d79f       $N00092                    1003379f     tbb_debug.exp
 0002:0000d7d6       $N00093                    100337d6     tbb_debug.exp
 0002:0000d812       $N00094                    10033812     tbb_debug.exp
 0002:0000d851       $N00095                    10033851     tbb_debug.exp
 0002:0000d899       $N00096                    10033899     tbb_debug.exp
 0002:0000d8e4       $N00097                    100338e4     tbb_debug.exp
 0002:0000d921       $N00098                    10033921     tbb_debug.exp
 0002:0000d961       $N00099                    10033961     tbb_debug.exp
 0002:0000d9a7       $N00100                    100339a7     tbb_debug.exp
 0002:0000d9f0       $N00101                    100339f0     tbb_debug.exp
 0002:0000da3a       $N00102                    10033a3a     tbb_debug.exp
 0002:0000da87       $N00103                    10033a87     tbb_debug.exp
 0002:0000dab7       $N00104                    10033ab7     tbb_debug.exp
 0002:0000daf1       $N00105                    10033af1     tbb_debug.exp
 0002:0000db26       $N00106                    10033b26     tbb_debug.exp
 0002:0000db5e       $N00107                    10033b5e     tbb_debug.exp
 0002:0000db94       $N00108                    10033b94     tbb_debug.exp
 0002:0000dbcc       $N00109                    10033bcc     tbb_debug.exp
 0002:0000dc02       $N00110                    10033c02     tbb_debug.exp
 0002:0000dc43       $N00111                    10033c43     tbb_debug.exp
 0002:0000dc87       $N00112                    10033c87     tbb_debug.exp
 0002:0000dce0       $N00113                    10033ce0     tbb_debug.exp
 0002:0000dd24       $N00114                    10033d24     tbb_debug.exp
 0002:0000dd6b       $N00115                    10033d6b     tbb_debug.exp
 0002:0000dd95       $N00116                    10033d95     tbb_debug.exp
 0002:0000ddcf       $N00117                    10033dcf     tbb_debug.exp
 0002:0000de0c       $N00118                    10033e0c     tbb_debug.exp
 0002:0000de49       $N00119                    10033e49     tbb_debug.exp
 0002:0000de8e       $N00120                    10033e8e     tbb_debug.exp
 0002:0000ded6       $N00121                    10033ed6     tbb_debug.exp
 0002:0000df20       $N00122                    10033f20     tbb_debug.exp
 0002:0000df5b       $N00123                    10033f5b     tbb_debug.exp
 0002:0000dfa0       $N00124                    10033fa0     tbb_debug.exp
 0002:0000dfe0       $N00125                    10033fe0     tbb_debug.exp
 0002:0000e01d       $N00126                    1003401d     tbb_debug.exp
 0002:0000e058       $N00127                    10034058     tbb_debug.exp
 0002:0000e095       $N00128                    10034095     tbb_debug.exp
 0002:0000e0d0       $N00129                    100340d0     tbb_debug.exp
 0002:0000e102       $N00130                    10034102     tbb_debug.exp
 0002:0000e132       $N00131                    10034132     tbb_debug.exp
 0002:0000e170       $N00132                    10034170     tbb_debug.exp
 0002:0000e198       $N00133                    10034198     tbb_debug.exp
 0002:0000e1c6       $N00134                    100341c6     tbb_debug.exp
 0002:0000e1f4       $N00135                    100341f4     tbb_debug.exp
 0002:0000e22f       $N00136                    1003422f     tbb_debug.exp
 0002:0000e260       $N00137                    10034260     tbb_debug.exp
 0002:0000e29b       $N00138                    1003429b     tbb_debug.exp
 0002:0000e2c4       $N00139                    100342c4     tbb_debug.exp
 0002:0000e2ee       $N00140                    100342ee     tbb_debug.exp
 0002:0000e320       $N00141                    10034320     tbb_debug.exp
 0002:0000e347       $N00142                    10034347     tbb_debug.exp
 0002:0000e368       $N00143                    10034368     tbb_debug.exp
 0002:0000e3a3       $N00144                    100343a3     tbb_debug.exp
 0002:0000e3e3       $N00145                    100343e3     tbb_debug.exp
 0002:0000e41e       $N00146                    1003441e     tbb_debug.exp
 0002:0000e44d       $N00147                    1003444d     tbb_debug.exp
 0002:0000e47f       $N00148                    1003447f     tbb_debug.exp
 0002:0000e4a5       $N00149                    100344a5     tbb_debug.exp
 0002:0000e4e0       $N00150                    100344e0     tbb_debug.exp
 0002:0000e4fb       $N00151                    100344fb     tbb_debug.exp
 0002:0000e52e       $N00152                    1003452e     tbb_debug.exp
 0002:0000e556       $N00153                    10034556     tbb_debug.exp
 0002:0000e571       $N00154                    10034571     tbb_debug.exp
 0002:0000e599       $N00155                    10034599     tbb_debug.exp
 0002:0000e5d0       $N00156                    100345d0     tbb_debug.exp
 0002:0000e608       $N00157                    10034608     tbb_debug.exp
 0002:0000e633       $N00158                    10034633     tbb_debug.exp
 0002:0000e66f       $N00159                    1003466f     tbb_debug.exp
 0002:0000e6af       $N00160                    100346af     tbb_debug.exp
 0002:0000e6d4       $N00161                    100346d4     tbb_debug.exp
 0002:0000e70b       $N00162                    1003470b     tbb_debug.exp
 0002:0000e745       $N00163                    10034745     tbb_debug.exp
 0002:0000e784       $N00164                    10034784     tbb_debug.exp
 0002:0000e7c8       $N00165                    100347c8     tbb_debug.exp
 0002:0000e805       $N00166                    10034805     tbb_debug.exp
 0002:0000e82c       $N00167                    1003482c     tbb_debug.exp
 0002:0000e84a       $N00168                    1003484a     tbb_debug.exp
 0002:0000e860       $N00169                    10034860     tbb_debug.exp
 0002:0000e878       $N00170                    10034878     tbb_debug.exp
 0002:0000e892       $N00171                    10034892     tbb_debug.exp
 0002:0000e8a6       $N00172                    100348a6     tbb_debug.exp
 0002:0000e8bb       $N00173                    100348bb     tbb_debug.exp
 0002:0000ed40       .idata$6                   10034d40     kernel32:KERNEL32.dll
 0002:0000ee9e       .idata$6                   10034e9e     msvcprtd:MSVCP120D.dll
 0002:0000f1da       .idata$6                   100351da     MSVCRTD:MSVCR120D.dll
 0003:00000000       _MallocHandler             10036000     cache_aligned_allocator.obj
 0003:00000004       _FreeHandler               10036004     cache_aligned_allocator.obj
 0003:00000008       _NFS_LineSize              10036008     cache_aligned_allocator.obj
 0003:0000000c       ?dummy@?1??make_invalid@micro_queue@internal@tbb@@QAEXI@Z@4Upage@concurrent_queue_base_v3@34@A 1003600c     concurrent_queue.obj
 0003:00000024       $SG75822                   10036024     itt_notify_proxy.obj
 0003:00000030       $SG75823                   10036030     itt_notify_proxy.obj
 0003:00000040       $SG75824                   10036040     itt_notify_proxy.obj
 0003:0000004c       $SG75825                   1003604c     itt_notify_proxy.obj
 0003:00000058       $SG75826                   10036058     itt_notify_proxy.obj
 0003:0000006c       $SG75827                   1003606c     itt_notify_proxy.obj
 0003:00000080       $SG75828                   10036080     itt_notify_proxy.obj
 0003:00000098       $SG75829                   10036098     itt_notify_proxy.obj
 0003:000000b0       $SG75830                   100360b0     itt_notify_proxy.obj
 0003:000000c4       $SG75831                   100360c4     itt_notify_proxy.obj
 0003:000000d8       $SG75832                   100360d8     itt_notify_proxy.obj
 0003:000000ec       $SG75833                   100360ec     itt_notify_proxy.obj
 0003:00000100       $SG75834                   10036100     itt_notify_proxy.obj
 0003:00000114       $SG75835                   10036114     itt_notify_proxy.obj
 0003:00000124       $SG75836                   10036124     itt_notify_proxy.obj
 0003:0000013c       $SG75837                   1003613c     itt_notify_proxy.obj
 0003:00000150       $SG75838                   10036150     itt_notify_proxy.obj
 0003:00000168       $SG75839                   10036168     itt_notify_proxy.obj
 0003:0000017c       $SG75840                   1003617c     itt_notify_proxy.obj
 0003:00000190       $SG75841                   10036190     itt_notify_proxy.obj
 0003:000001a8       $SG75842                   100361a8     itt_notify_proxy.obj
 0003:000001bc       $SG75843                   100361bc     itt_notify_proxy.obj
 0003:000001d0       $SG75844                   100361d0     itt_notify_proxy.obj
 0003:000001e4       $SG75845                   100361e4     itt_notify_proxy.obj
 0003:000001f8       $SG75846                   100361f8     itt_notify_proxy.obj
 0003:00000210       $SG75847                   10036210     itt_notify_proxy.obj
 0003:00000224       $SG75848                   10036224     itt_notify_proxy.obj
 0003:00000238       $SG75849                   10036238     itt_notify_proxy.obj
 0003:0000024c       $SG75850                   1003624c     itt_notify_proxy.obj
 0003:00000260       $SG75851                   10036260     itt_notify_proxy.obj
 0003:00000274       $SG75852                   10036274     itt_notify_proxy.obj
 0003:0000028c       $SG75853                   1003628c     itt_notify_proxy.obj
 0003:000002a4       $SG75854                   100362a4     itt_notify_proxy.obj
 0003:000002c0       $SG75855                   100362c0     itt_notify_proxy.obj
 0003:000002dc       $SG75856                   100362dc     itt_notify_proxy.obj
 0003:000002f8       $SG75857                   100362f8     itt_notify_proxy.obj
 0003:00000314       $SG75858                   10036314     itt_notify_proxy.obj
 0003:00000330       $SG75859                   10036330     itt_notify_proxy.obj
 0003:00000348       $SG75860                   10036348     itt_notify_proxy.obj
 0003:00000360       $SG75861                   10036360     itt_notify_proxy.obj
 0003:00000374       $SG75862                   10036374     itt_notify_proxy.obj
 0003:00000388       $SG75863                   10036388     itt_notify_proxy.obj
 0003:0000039c       $SG75864                   1003639c     itt_notify_proxy.obj
 0003:000003b0       $SG75865                   100363b0     itt_notify_proxy.obj
 0003:000003c8       $SG75866                   100363c8     itt_notify_proxy.obj
 0003:000003dc       $SG75867                   100363dc     itt_notify_proxy.obj
 0003:000003ec       $SG75868                   100363ec     itt_notify_proxy.obj
 0003:000003fc       $SG75869                   100363fc     itt_notify_proxy.obj
 0003:0000040c       $SG75870                   1003640c     itt_notify_proxy.obj
 0003:00000420       $SG75871                   10036420     itt_notify_proxy.obj
 0003:00000434       $SG75872                   10036434     itt_notify_proxy.obj
 0003:00000448       $SG75873                   10036448     itt_notify_proxy.obj
 0003:00000464       $SG75878                   10036464     itt_notify_proxy.obj
 0003:0000047c       $SG75886                   1003647c     itt_notify_proxy.obj
 0003:00000530       _ittnotify_lib_name        10036530     itt_notify_proxy.obj
 0003:00000534       $SG75535                   10036534     itt_notify_proxy.obj
 0003:00000548       $SG75637                   10036548     itt_notify_proxy.obj
 0003:00000560       _group_list                10036560     itt_notify_proxy.obj
 0003:000005a0       $SG75644                   100365a0     itt_notify_proxy.obj
 0003:000005a8       $SG75645                   100365a8     itt_notify_proxy.obj
 0003:000005b0       $SG75646                   100365b0     itt_notify_proxy.obj
 0003:000005b8       $SG75647                   100365b8     itt_notify_proxy.obj
 0003:000005c0       $SG75648                   100365c0     itt_notify_proxy.obj
 0003:000005c8       $SG75649                   100365c8     itt_notify_proxy.obj
 0003:000005cc       $SG75650                   100365cc     itt_notify_proxy.obj
 0003:000005d0       _group_alias               100365d0     itt_notify_proxy.obj
 0003:000005e8       $SG75658                   100365e8     itt_notify_proxy.obj
 0003:000005fc       $SG75659                   100365fc     itt_notify_proxy.obj
 0003:00000610       _func_map                  10036610     itt_notify_proxy.obj
 0003:00000f08       _allocator_arg             10036f08     concurrent_vector_v2.obj
 0003:00000f09       _piecewise_construct       10036f09     concurrent_vector_v2.obj
 0003:00000f18       _allocator_arg             10036f18     concurrent_hash_map.obj
 0003:00000f19       _piecewise_construct       10036f19     concurrent_hash_map.obj
 0003:00000f24       _allocator_arg             10036f24     concurrent_queue.obj
 0003:00000f25       _piecewise_construct       10036f25     concurrent_queue.obj
 0003:00000f28       _invalid_page              10036f28     concurrent_queue.obj
 0003:00000f2c       _allocator_arg             10036f2c     concurrent_vector.obj
 0003:00000f2d       _piecewise_construct       10036f2d     concurrent_vector.obj
 0003:00000f30       ?init@?1??__itt_init_lib@@9@9 10036f30     itt_notify_proxy.obj
 0003:00000f34       ?result@?1??__itt_init_lib@@9@9 10036f34     itt_notify_proxy.obj
 0003:00000f38       _error_handler             10036f38     itt_notify_proxy.obj
 0003:00000f3c       _ittnotify_lib             10036f3c     itt_notify_proxy.obj
 0003:00000f40       ?env_value@?1??__itt_get_env_var@@9@9 10036f40     itt_notify_proxy.obj
 0003:00001f50       _global_cancel_count       10037f50     task.obj
 0003:00001f54       _the_scheduler_list_mutex  10037f54     task.obj
 0003:00001f70       _dummy_context             10037f70     task.obj
 0003:0000208c       _allocator_arg             1003808c     task.obj
 0003:0000208d       _the_check_observer_proxy_count 1003808d     task.obj
 0003:0000208e       _piecewise_construct       1003808e     task.obj
 0003:0000208f       _ITT_Present               1003808f     task.obj
 0003:00002090       _DefaultNumberOfThreads    10038090     task.obj
 0003:00002094       _SchedulerTraitsId         10038094     task.obj
 0003:00002098       _ITT_InitializationDone    10038098     task.obj
 0003:00002099       _use_private_rml           10038099     task.obj
 0003:0000209c       _rml_server_factory        1003809c     task.obj
 0003:000020b0       _the_task_scheduler_observer_mutex 100380b0     task.obj
 0003:000020b4       _global_first_observer_proxy 100380b4     task.obj
 0003:000020b8       _global_last_observer_proxy 100380b8     task.obj
 0003:000020bc       _the_scheduler_list_head   100380bc     task.obj
 0003:000020c4       _observer_proxy_count      100380c4     task.obj
 0003:000020c8       _PrintVersionFlag          100380c8     tbb_misc.obj
 0003:000020c9       _allocator_arg             100380c9     tbb_misc.obj
 0003:000020ca       _piecewise_construct       100380ca     tbb_misc.obj
 0003:000020cc       _assertion_handler         100380cc     tbb_misc.obj
 0003:000020d0       ?already_failed@?6??assertion_failure@tbb@@YAXPBDH00@Z@4_NA 100380d0     tbb_misc.obj
 0003:000020d4       ?cache@?1??__TBB_machine_store8_slow_perf_warning@@9@4PAU?$atomic@PAX@tbb@@A 100380d4     tbb_misc.obj
 0003:000020e4       ?k@?1??__TBB_machine_store8_slow_perf_warning@@9@4U?$atomic@I@tbb@@A 100380e4     tbb_misc.obj
 0003:000020e8       _allocator_arg             100380e8     tbb_thread.obj
 0003:000020e9       _piecewise_construct       100380e9     tbb_thread.obj
 0003:000020ea       ?init@?1??_RTC_InitBase@@9@4_NA 100380ea     MSVCRTD:init.obj
 0003:000020f0       _GS_ExceptionRecord        100380f0     MSVCRTD:gs_report.obj
 0003:00002140       _GS_ContextRecord          10038140     MSVCRTD:gs_report.obj
 0003:0000240c       _DebuggerWasPresent        1003840c     MSVCRTD:gs_report.obj
 0003:00002418       ___proc_attached           10038418     MSVCRTD:crtdll.obj
 0003:00002420       __RTC_ErrorReportFunc      10038420     MSVCRTD:userapi.obj
 0003:00002424       __RTC_ErrorReportFuncW     10038424     MSVCRTD:userapi.obj
 0003:00002428       _mspdb                     10038428     MSVCRTD:pdblkup.obj
 0003:0000242c       ?alreadyTried@?1??GetPdbDll@@YAPAUHINSTANCE__@@XZ@4_NA 1003842c     MSVCRTD:pdblkup.obj
 0003:0000242d       ?PDBOK@?BM@??_RTC_GetSrcLine@@YAHPAEPA_WKPAH1K@Z@4_NA 1003842d     MSVCRTD:pdblkup.obj
 0004:000000a0       $R000000                   100390a0     tbb_resource.res
 0004:000005c0       $R000520                   100395c0     tbb_resource.res
